
采样模块.elf:     file format elf32-littleriscv
采样模块.elf
architecture: riscv:rv32, flags 0x00000112:
EXEC_P, HAS_SYMS, D_PAGED
start address 0x00000000

Program Header:
    LOAD off    0x00001000 vaddr 0x00000000 paddr 0x00000000 align 2**12
         filesz 0x000045c4 memsz 0x000045c4 flags r-x
    LOAD off    0x00006000 vaddr 0x20000000 paddr 0x000045c4 align 2**12
         filesz 0x00000240 memsz 0x00000388 flags rw-
    LOAD off    0x00006800 vaddr 0x20004800 paddr 0x20004800 align 2**12
         filesz 0x00000000 memsz 0x00000800 flags rw-

Sections:
Idx Name          Size      VMA       LMA       File off  Algn
  0 .init         00000004  00000000  00000000  00001000  2**1
                  CONTENTS, ALLOC, LOAD, READONLY, CODE
  1 .vector       000000fc  00000004  00000004  00001004  2**1
                  CONTENTS, ALLOC, LOAD, READONLY, CODE
  2 .text         000044c4  00000100  00000100  00001100  2**3
                  CONTENTS, ALLOC, LOAD, READONLY, CODE
  3 .fini         00000000  000045c4  000045c4  00006240  2**0
                  CONTENTS, ALLOC, LOAD, CODE
  4 .dalign       00000000  20000000  20000000  00006240  2**0
                  CONTENTS
  5 .dlalign      00000000  000045c4  000045c4  00006240  2**0
                  CONTENTS
  6 .data         00000240  20000000  000045c4  00006000  2**2
                  CONTENTS, ALLOC, LOAD, DATA
  7 .bss          00000148  20000240  00004804  00006240  2**2
                  ALLOC
  8 .stack        00000800  20004800  20004800  00006800  2**0
                  ALLOC
  9 .debug_info   000117f0  00000000  00000000  00006240  2**0
                  CONTENTS, READONLY, DEBUGGING
 10 .debug_abbrev 00002c4d  00000000  00000000  00017a30  2**0
                  CONTENTS, READONLY, DEBUGGING
 11 .debug_aranges 00000968  00000000  00000000  0001a680  2**3
                  CONTENTS, READONLY, DEBUGGING
 12 .debug_ranges 00000a50  00000000  00000000  0001afe8  2**3
                  CONTENTS, READONLY, DEBUGGING
 13 .debug_line   0000c8bb  00000000  00000000  0001ba38  2**0
                  CONTENTS, READONLY, DEBUGGING
 14 .debug_str    00002e4c  00000000  00000000  000282f3  2**0
                  CONTENTS, READONLY, DEBUGGING
 15 .comment      00000033  00000000  00000000  0002b13f  2**0
                  CONTENTS, READONLY
 16 .debug_frame  000017b4  00000000  00000000  0002b174  2**2
                  CONTENTS, READONLY, DEBUGGING
 17 .debug_loc    000048c4  00000000  00000000  0002c928  2**0
                  CONTENTS, READONLY, DEBUGGING
SYMBOL TABLE:
00000000 l    d  .init	00000000 .init
00000004 l    d  .vector	00000000 .vector
00000100 l    d  .text	00000000 .text
000045c4 l    d  .fini	00000000 .fini
20000000 l    d  .dalign	00000000 .dalign
000045c4 l    d  .dlalign	00000000 .dlalign
20000000 l    d  .data	00000000 .data
20000240 l    d  .bss	00000000 .bss
20004800 l    d  .stack	00000000 .stack
00000000 l    d  .debug_info	00000000 .debug_info
00000000 l    d  .debug_abbrev	00000000 .debug_abbrev
00000000 l    d  .debug_aranges	00000000 .debug_aranges
00000000 l    d  .debug_ranges	00000000 .debug_ranges
00000000 l    d  .debug_line	00000000 .debug_line
00000000 l    d  .debug_str	00000000 .debug_str
00000000 l    d  .comment	00000000 .comment
00000000 l    d  .debug_frame	00000000 .debug_frame
00000000 l    d  .debug_loc	00000000 .debug_loc
00000000 l    df *ABS*	00000000 ./Startup/startup_ch32v20x_D6.o
00000004 l       .vector	00000000 _vector_base
00000000 l    df *ABS*	00000000 ch32v20x_it.c
00000000 l    df *ABS*	00000000 main.c
00000000 l    df *ABS*	00000000 system_ch32v20x.c
00000000 l    df *ABS*	00000000 ch32v20x_adc.c
00000000 l    df *ABS*	00000000 ch32v20x_gpio.c
00000000 l    df *ABS*	00000000 ch32v20x_misc.c
00000000 l    df *ABS*	00000000 ch32v20x_rcc.c
20000010 l     O .data	00000010 APBAHBPrescTable
20000238 l     O .data	00000004 ADCPrescTable
00000000 l    df *ABS*	00000000 ch32v20x_tim.c
00000000 l    df *ABS*	00000000 ch32v20x_usart.c
00000000 l    df *ABS*	00000000 PWM.c
00000000 l    df *ABS*	00000000 OLED.c
00000000 l    df *ABS*	00000000 ModBus.c
2000025c l     O .bss	00000004 timeout_cnt.4937
00000000 l    df *ABS*	00000000 ADC.c
00000000 l    df *ABS*	00000000 debug.c
20000260 l     O .bss	00000002 p_ms
20000262 l     O .bss	00000001 p_us
00000000 l    df *ABS*	00000000 adddf3.c
00000000 l    df *ABS*	00000000 divdf3.c
00000000 l    df *ABS*	00000000 gedf2.c
00000000 l    df *ABS*	00000000 ledf2.c
00000000 l    df *ABS*	00000000 muldf3.c
00000000 l    df *ABS*	00000000 subdf3.c
00000000 l    df *ABS*	00000000 floatsidf.c
00000000 l    df *ABS*	00000000 mulsf3.c
00000000 l    df *ABS*	00000000 subsf3.c
00000000 l    df *ABS*	00000000 fixunssfsi.c
00000000 l    df *ABS*	00000000 floatsisf.c
00000000 l    df *ABS*	00000000 extendsfdf2.c
00000000 l    df *ABS*	00000000 truncdfsf2.c
00000000 l    df *ABS*	00000000 libgcc2.c
00000000 l    df *ABS*	00000000 memcpy.c
00000000 l    df *ABS*	00000000 libgcc2.c
000007a2  w      .text	00000000 EXTI2_IRQHandler
0000120c g     F .text	00000044 OLED_ShowNum
00000426 g     F .text	00000112 Electricity_Get
20000a30 g       .data	00000000 __global_pointer$
00000108 g     F .text	00000028 .hidden __riscv_save_8
000007a2  w      .text	00000000 TIM1_CC_IRQHandler
0000020a g     F .text	00000010 HardFault_Handler
00003e14 g     O .text	000005f0 OLED_F8x16
20000230 g     O .data	00000002 pwm1
00000154 g     F .text	0000000c .hidden __riscv_restore_3
00000d28 g     F .text	0000000e TIM_OC1PreloadConfig
000007a2  w      .text	00000000 SysTick_Handler
000008a2 g     F .text	0000000a ADC_StartCalibration
00000ab0 g     F .text	00000054 NVIC_Init
20000232 g     O .data	00000002 pwm2
000007a2  w      .text	00000000 PVD_IRQHandler
0000172e g     F .text	00000044 AD_GetValue_0
00000140 g     F .text	00000020 .hidden __riscv_restore_10
00000208 g     F .text	00000002 NMI_Handler
00000faa g     F .text	0000004a OLED_I2C_Init
000007a2  w      .text	00000000 EXTI3_IRQHandler
00000108 g     F .text	00000028 .hidden __riscv_save_11
00002530 g     F .text	000000ae .hidden __gtdf2
00000ff4 g     F .text	0000003e OLED_I2C_Start
00000538 g     F .text	000000d4 OLED_Updata
00000e48 g     F .text	0000000a USART_GetFlagStatus
20000240 g       .bss	00000000 _sbss
00000800 g       *ABS*	00000000 __stack_size
0000098c g     F .text	0000000a ADC_GetFlagStatus
00003590 g     F .text	00000388 .hidden __subsf3
000007a2  w      .text	00000000 USBFS_IRQHandler
00000154 g     F .text	0000000c .hidden __riscv_restore_2
00003cb8 g     F .text	000000b2 memcpy
00000880 g     F .text	00000010 ADC_Cmd
00001250 g     F .text	00000090 OLED_Init
0000328a g     F .text	00000072 .hidden __floatsidf
00001772 g     F .text	00000044 AD_GetValue_1
000025de g     F .text	000000b6 .hidden __ltdf2
000007a2  w      .text	00000000 EXTI0_IRQHandler
000007a2  w      .text	00000000 I2C2_EV_IRQHandler
00000ce4 g     F .text	00000018 TIM_Cmd
20000234 g     O .data	00000004 SystemCoreClock
00000e40 g     F .text	00000008 USART_ReceiveData
00000004 g       .init	00000000 _einit
00000d52 g     F .text	0000000c TIM_ClearITPendingBit
00000bd4 g     F .text	0000001e RCC_APB2PeriphClockCmd
00000100 g     F .text	00000030 .hidden __riscv_save_12
00001402 g     F .text	00000056 ModBus_SendFrame
000007a2  w      .text	00000000 ADC1_2_IRQHandler
0000099e g     F .text	000000f2 GPIO_Init
00000b04 g     F .text	00000012 RCC_ADCCLKConfig
000007a2  w      .text	00000000 Break_Point_Handler
00000140 g     F .text	00000020 .hidden __riscv_restore_11
20000258 g     O .bss	00000004 NVIC_Priority_Group
000007a2  w      .text	00000000 SPI1_IRQHandler
00000890 g     F .text	0000000a ADC_ResetCalibration
00000dec g     F .text	00000016 USART_Cmd
2000024c g     O .bss	00000002 electricity_IN
00000130 g     F .text	0000000c .hidden __riscv_save_1
000007a2  w      .text	00000000 TAMPER_IRQHandler
00000154 g     F .text	0000000c .hidden __riscv_restore_0
00000116 g     F .text	0000001a .hidden __riscv_save_7
00000e8e g     F .text	00000014 USART_ClearITPendingBit
00003a34 g     F .text	000000ac .hidden __extendsfdf2
00000bf2 g     F .text	0000001e RCC_APB1PeriphClockCmd
0000184c g     F .text	00000730 .hidden __adddf3
000007a2  w      .text	00000000 Ecall_M_Mode_Handler
20004800 g       .stack	00000000 _heap_end
000017e0 g     F .text	00000036 Delay_Us
0000014a g     F .text	00000016 .hidden __riscv_restore_5
000007a2  w      .text	00000000 DMA1_Channel4_IRQHandler
000008cc g     F .text	000000b8 ADC_RegularChannelConfig
00000984 g     F .text	00000008 ADC_GetConversionValue
0000106a g     F .text	0000008a OLED_I2C_SendByte
0000014a g     F .text	00000016 .hidden __riscv_restore_6
000007a2  w      .text	00000000 USART3_IRQHandler
00001676 g     F .text	000000b8 AD_Init
000007a2  w      .text	00000000 RTC_IRQHandler
000008ac g     F .text	00000008 ADC_GetCalibrationStatus
20000388 g       .bss	00000000 _ebss
00000e52 g     F .text	0000003c USART_GetITStatus
00001032 g     F .text	00000038 OLED_I2C_Stop
000007a2  w      .text	00000000 DMA1_Channel7_IRQHandler
00000c7a g     F .text	0000006a TIM_OC1Init
000008b4 g     F .text	00000018 ADC_SoftwareStartConvCmd
0000089a g     F .text	00000008 ADC_GetResetCalibrationStatus
00001176 g     F .text	00000068 OLED_ShowChar
20000250 g     O .bss	00000004 voltage
000007a2  w      .text	00000000 CAN1_RX1_IRQHandler
000002c0 g     F .text	00000166 Voltage_Get
000017b6 g     F .text	0000002a Delay_Init
000007a2  w      .text	00000000 TIM4_IRQHandler
000025de g     F .text	000000b6 .hidden __ledf2
000011de g     F .text	0000002e OLED_ShowString
00000d0e g     F .text	0000001a TIM_ARRPreloadConfig
00000108 g     F .text	00000028 .hidden __riscv_save_9
00000a90 g     F .text	0000001a GPIO_WriteBit
20000264 g     O .bss	00000122 mb_data
000013c4 g     F .text	0000003e ModBus_CRC16
00000116 g     F .text	0000001a .hidden __riscv_save_4
000007a2  w      .text	00000000 I2C1_EV_IRQHandler
00000d3a g     F .text	00000018 TIM_GetITStatus
00000b16 g     F .text	000000be RCC_GetClocksFreq
000007a2  w      .text	00000000 DMA1_Channel6_IRQHandler
00003c4a g     F .text	0000006e .hidden __clzsi2
000007a2  w      .text	00000000 UART4_IRQHandler
00000d5e g     F .text	0000008e USART_Init
000007a2  w      .text	00000000 TIM3_IRQHandler
000007a2  w      .text	00000000 RCC_IRQHandler
00000130 g     F .text	0000000c .hidden __riscv_save_3
000007a2  w      .text	00000000 TIM1_TRG_COM_IRQHandler
000007a2  w      .text	00000000 DMA1_Channel1_IRQHandler
00000000 g       .init	00000000 _start
20000000 g     O .data	00000010 AHBPrescTable
20000254 g     O .bss	00000002 voltage_IN
20000240 g     O .bss	00000004 adc_electricity
00000f26 g     F .text	00000084 TIM4_PWM_Init
0000396e g     F .text	000000c6 .hidden __floatsisf
000007a2  w      .text	00000000 EXTI15_10_IRQHandler
00000cfc g     F .text	00000012 TIM_ITConfig
00000e02 g     F .text	00000036 USART_ITConfig
000015ce g     F .text	00000028 ModBus_TimeoutCheck
20000248 g     O .bss	00000004 electricity
000007a2  w      .text	00000000 DMA1_Channel8_IRQHandler
20000000 g       .dalign	00000000 _data_vma
20000256 g     O .bss	00000001 MCU_Version
000007a2  w      .text	00000000 EXTI9_5_IRQHandler
00001f7c g     F .text	000005b4 .hidden __divdf3
00001110 g     F .text	0000001e OLED_WriteData
00002694 g     F .text	000004b8 .hidden __muldf3
00000108 g     F .text	00000028 .hidden __riscv_save_10
0000014a g     F .text	00000016 .hidden __riscv_restore_4
00000140 g     F .text	00000020 .hidden __riscv_restore_8
00000116 g     F .text	0000001a .hidden __riscv_save_6
0000114e g     F .text	00000028 OLED_Clear
000007a2  w      .text	00000000 SPI2_IRQHandler
00000ea2 g     F .text	00000084 TIM3_PWM_Init
00000160 g     F .text	000000a8 memset
00000140 g     F .text	00000020 .hidden __riscv_restore_9
0000014a g     F .text	00000016 .hidden __riscv_restore_7
0000060c g     F .text	0000001e main
20000244 g     O .bss	00000004 adc_voltage
0000021a g     F .text	000000a6 System_Init
000012e0 g     F .text	000000e4 ModBus_Init
00003ae0 g     F .text	0000016a .hidden __truncdfsf2
000007a2  w      .text	00000000 DMA1_Channel5_IRQHandler
0000112e g     F .text	00000020 OLED_SetCursor
000007a2  w      .text	00000000 EXTI4_IRQHandler
00001816 g     F .text	00000036 Delay_Ms
000007a2  w      .text	00000000 USB_LP_CAN1_RX0_IRQHandler
000032fc g     F .text	00000294 .hidden __mulsf3
00001458 g     F .text	00000176 ModBus_ProcessFrame
0000062a g     F .text	000000ea SystemInit
000007a2  w      .text	00000000 USB_HP_CAN1_TX_IRQHandler
000044c4 g     O .text	00000100 .hidden __clz_tab
00000000 g       .init	00000000 _sinit
000007a2  w      .text	00000000 DMA1_Channel3_IRQHandler
000007a2  w      .text	00000000 TIM1_UP_IRQHandler
000007a2  w      .text	00000000 WWDG_IRQHandler
00000996 g     F .text	00000008 ADC_ClearFlag
000007a2  w      .text	00000000 Ecall_U_Mode_Handler
0000165a g     F .text	0000001c TIM2_IRQHandler
20005000 g       .stack	00000000 _eusrstack
00000130 g     F .text	0000000c .hidden __riscv_save_2
000007a2  w      .text	00000000 SW_Handler
000007a2  w      .text	00000000 TIM1_BRK_IRQHandler
0000082a g     F .text	00000056 ADC_Init
00000e38 g     F .text	00000008 USART_SendData
000007a2  w      .text	00000000 EXTI1_IRQHandler
00000116 g     F .text	0000001a .hidden __riscv_save_5
20000240 g       .data	00000000 _edata
20000388 g       .bss	00000000 _end
00000c10 g     F .text	0000006a TIM_TimeBaseInit
000007a2  w      .text	00000000 RTCAlarm_IRQHandler
000045c4 g       .dlalign	00000000 _data_lma
000007a2  w      .text	00000000 USART2_IRQHandler
00000714 g     F .text	0000008e SystemCoreClockUpdate
000007a2  w      .text	00000000 I2C2_ER_IRQHandler
000007a2  w      .text	00000000 DMA1_Channel2_IRQHandler
0000013c g     F .text	00000024 .hidden __riscv_restore_12
000007a4  w      .text	00000000 handle_reset
000007a2  w      .text	00000000 CAN1_SCE_IRQHandler
00003918 g     F .text	00000056 .hidden __fixunssfsi
000007a2  w      .text	00000000 FLASH_IRQHandler
00000130 g     F .text	0000000c .hidden __riscv_save_0
000007a2  w      .text	00000000 USBFSWakeUp_IRQHandler
000015f6 g     F .text	00000064 USART1_IRQHandler
00002530 g     F .text	000000ae .hidden __gedf2
000007a2  w      .text	00000000 I2C1_ER_IRQHandler
00000aaa g     F .text	00000006 NVIC_PriorityGroupConfig
00000154 g     F .text	0000000c .hidden __riscv_restore_1
00002b4c g     F .text	0000073e .hidden __subdf3
00000d36 g     F .text	00000004 TIM_SetCompare1
20000020 g     O .data	0000020c mb_frame
000007a2  w      .text	00000000 USBWakeUp_IRQHandler
000010f4 g     F .text	0000001c OLED_WriteCommand



Disassembly of section .init:

00000000 <_sinit>:
   0:	7a40006f          	j	7a4 <handle_reset>

Disassembly of section .vector:

00000004 <_vector_base>:
	...
   c:	0208                	addi	a0,sp,256
   e:	0000                	unimp
  10:	020a                	slli	tp,tp,0x2
  12:	0000                	unimp
  14:	0000                	unimp
  16:	0000                	unimp
  18:	07a2                	slli	a5,a5,0x8
	...
  22:	0000                	unimp
  24:	07a2                	slli	a5,a5,0x8
  26:	0000                	unimp
  28:	07a2                	slli	a5,a5,0x8
	...
  32:	0000                	unimp
  34:	07a2                	slli	a5,a5,0x8
  36:	0000                	unimp
  38:	0000                	unimp
  3a:	0000                	unimp
  3c:	07a2                	slli	a5,a5,0x8
  3e:	0000                	unimp
  40:	0000                	unimp
  42:	0000                	unimp
  44:	07a2                	slli	a5,a5,0x8
  46:	0000                	unimp
  48:	07a2                	slli	a5,a5,0x8
  4a:	0000                	unimp
  4c:	07a2                	slli	a5,a5,0x8
  4e:	0000                	unimp
  50:	07a2                	slli	a5,a5,0x8
  52:	0000                	unimp
  54:	07a2                	slli	a5,a5,0x8
  56:	0000                	unimp
  58:	07a2                	slli	a5,a5,0x8
  5a:	0000                	unimp
  5c:	07a2                	slli	a5,a5,0x8
  5e:	0000                	unimp
  60:	07a2                	slli	a5,a5,0x8
  62:	0000                	unimp
  64:	07a2                	slli	a5,a5,0x8
  66:	0000                	unimp
  68:	07a2                	slli	a5,a5,0x8
  6a:	0000                	unimp
  6c:	07a2                	slli	a5,a5,0x8
  6e:	0000                	unimp
  70:	07a2                	slli	a5,a5,0x8
  72:	0000                	unimp
  74:	07a2                	slli	a5,a5,0x8
  76:	0000                	unimp
  78:	07a2                	slli	a5,a5,0x8
  7a:	0000                	unimp
  7c:	07a2                	slli	a5,a5,0x8
  7e:	0000                	unimp
  80:	07a2                	slli	a5,a5,0x8
  82:	0000                	unimp
  84:	07a2                	slli	a5,a5,0x8
  86:	0000                	unimp
  88:	07a2                	slli	a5,a5,0x8
  8a:	0000                	unimp
  8c:	07a2                	slli	a5,a5,0x8
  8e:	0000                	unimp
  90:	07a2                	slli	a5,a5,0x8
  92:	0000                	unimp
  94:	07a2                	slli	a5,a5,0x8
  96:	0000                	unimp
  98:	07a2                	slli	a5,a5,0x8
  9a:	0000                	unimp
  9c:	07a2                	slli	a5,a5,0x8
  9e:	0000                	unimp
  a0:	07a2                	slli	a5,a5,0x8
  a2:	0000                	unimp
  a4:	07a2                	slli	a5,a5,0x8
  a6:	0000                	unimp
  a8:	07a2                	slli	a5,a5,0x8
  aa:	0000                	unimp
  ac:	07a2                	slli	a5,a5,0x8
  ae:	0000                	unimp
  b0:	07a2                	slli	a5,a5,0x8
  b2:	0000                	unimp
  b4:	165a                	slli	a2,a2,0x36
  b6:	0000                	unimp
  b8:	07a2                	slli	a5,a5,0x8
  ba:	0000                	unimp
  bc:	07a2                	slli	a5,a5,0x8
  be:	0000                	unimp
  c0:	07a2                	slli	a5,a5,0x8
  c2:	0000                	unimp
  c4:	07a2                	slli	a5,a5,0x8
  c6:	0000                	unimp
  c8:	07a2                	slli	a5,a5,0x8
  ca:	0000                	unimp
  cc:	07a2                	slli	a5,a5,0x8
  ce:	0000                	unimp
  d0:	07a2                	slli	a5,a5,0x8
  d2:	0000                	unimp
  d4:	07a2                	slli	a5,a5,0x8
  d6:	0000                	unimp
  d8:	15f6                	slli	a1,a1,0x3d
  da:	0000                	unimp
  dc:	07a2                	slli	a5,a5,0x8
  de:	0000                	unimp
  e0:	07a2                	slli	a5,a5,0x8
  e2:	0000                	unimp
  e4:	07a2                	slli	a5,a5,0x8
  e6:	0000                	unimp
  e8:	07a2                	slli	a5,a5,0x8
  ea:	0000                	unimp
  ec:	07a2                	slli	a5,a5,0x8
  ee:	0000                	unimp
  f0:	07a2                	slli	a5,a5,0x8
  f2:	0000                	unimp
  f4:	07a2                	slli	a5,a5,0x8
  f6:	0000                	unimp
  f8:	07a2                	slli	a5,a5,0x8
  fa:	0000                	unimp
  fc:	07a2                	slli	a5,a5,0x8
	...

Disassembly of section .text:

00000100 <__riscv_save_12>:
     100:	7139                	addi	sp,sp,-64
     102:	4301                	li	t1,0
     104:	c66e                	sw	s11,12(sp)
     106:	a019                	j	10c <__riscv_save_10+0x4>

00000108 <__riscv_save_10>:
     108:	7139                	addi	sp,sp,-64
     10a:	5341                	li	t1,-16
     10c:	c86a                	sw	s10,16(sp)
     10e:	ca66                	sw	s9,20(sp)
     110:	cc62                	sw	s8,24(sp)
     112:	ce5e                	sw	s7,28(sp)
     114:	a019                	j	11a <__riscv_save_4+0x4>

00000116 <__riscv_save_4>:
     116:	7139                	addi	sp,sp,-64
     118:	5301                	li	t1,-32
     11a:	d05a                	sw	s6,32(sp)
     11c:	d256                	sw	s5,36(sp)
     11e:	d452                	sw	s4,40(sp)
     120:	d64e                	sw	s3,44(sp)
     122:	d84a                	sw	s2,48(sp)
     124:	da26                	sw	s1,52(sp)
     126:	dc22                	sw	s0,56(sp)
     128:	de06                	sw	ra,60(sp)
     12a:	40610133          	sub	sp,sp,t1
     12e:	8282                	jr	t0

00000130 <__riscv_save_0>:
     130:	1141                	addi	sp,sp,-16
     132:	c04a                	sw	s2,0(sp)
     134:	c226                	sw	s1,4(sp)
     136:	c422                	sw	s0,8(sp)
     138:	c606                	sw	ra,12(sp)
     13a:	8282                	jr	t0

0000013c <__riscv_restore_12>:
     13c:	4db2                	lw	s11,12(sp)
     13e:	0141                	addi	sp,sp,16

00000140 <__riscv_restore_10>:
     140:	4d02                	lw	s10,0(sp)
     142:	4c92                	lw	s9,4(sp)
     144:	4c22                	lw	s8,8(sp)
     146:	4bb2                	lw	s7,12(sp)
     148:	0141                	addi	sp,sp,16

0000014a <__riscv_restore_4>:
     14a:	4b02                	lw	s6,0(sp)
     14c:	4a92                	lw	s5,4(sp)
     14e:	4a22                	lw	s4,8(sp)
     150:	49b2                	lw	s3,12(sp)
     152:	0141                	addi	sp,sp,16

00000154 <__riscv_restore_0>:
     154:	4902                	lw	s2,0(sp)
     156:	4492                	lw	s1,4(sp)
     158:	4422                	lw	s0,8(sp)
     15a:	40b2                	lw	ra,12(sp)
     15c:	0141                	addi	sp,sp,16
     15e:	8082                	ret

00000160 <memset>:
     160:	433d                	li	t1,15
     162:	872a                	mv	a4,a0
     164:	02c37363          	bgeu	t1,a2,18a <memset+0x2a>
     168:	00f77793          	andi	a5,a4,15
     16c:	efbd                	bnez	a5,1ea <memset+0x8a>
     16e:	e5ad                	bnez	a1,1d8 <memset+0x78>
     170:	ff067693          	andi	a3,a2,-16
     174:	8a3d                	andi	a2,a2,15
     176:	96ba                	add	a3,a3,a4
     178:	c30c                	sw	a1,0(a4)
     17a:	c34c                	sw	a1,4(a4)
     17c:	c70c                	sw	a1,8(a4)
     17e:	c74c                	sw	a1,12(a4)
     180:	0741                	addi	a4,a4,16
     182:	fed76be3          	bltu	a4,a3,178 <memset+0x18>
     186:	e211                	bnez	a2,18a <memset+0x2a>
     188:	8082                	ret
     18a:	40c306b3          	sub	a3,t1,a2
     18e:	068a                	slli	a3,a3,0x2
     190:	00000297          	auipc	t0,0x0
     194:	9696                	add	a3,a3,t0
     196:	00a68067          	jr	10(a3)
     19a:	00b70723          	sb	a1,14(a4)
     19e:	00b706a3          	sb	a1,13(a4)
     1a2:	00b70623          	sb	a1,12(a4)
     1a6:	00b705a3          	sb	a1,11(a4)
     1aa:	00b70523          	sb	a1,10(a4)
     1ae:	00b704a3          	sb	a1,9(a4)
     1b2:	00b70423          	sb	a1,8(a4)
     1b6:	00b703a3          	sb	a1,7(a4)
     1ba:	00b70323          	sb	a1,6(a4)
     1be:	00b702a3          	sb	a1,5(a4)
     1c2:	00b70223          	sb	a1,4(a4)
     1c6:	00b701a3          	sb	a1,3(a4)
     1ca:	00b70123          	sb	a1,2(a4)
     1ce:	00b700a3          	sb	a1,1(a4)
     1d2:	00b70023          	sb	a1,0(a4)
     1d6:	8082                	ret
     1d8:	0ff5f593          	andi	a1,a1,255
     1dc:	00859693          	slli	a3,a1,0x8
     1e0:	8dd5                	or	a1,a1,a3
     1e2:	01059693          	slli	a3,a1,0x10
     1e6:	8dd5                	or	a1,a1,a3
     1e8:	b761                	j	170 <memset+0x10>
     1ea:	00279693          	slli	a3,a5,0x2
     1ee:	00000297          	auipc	t0,0x0
     1f2:	9696                	add	a3,a3,t0
     1f4:	8286                	mv	t0,ra
     1f6:	fa8680e7          	jalr	-88(a3)
     1fa:	8096                	mv	ra,t0
     1fc:	17c1                	addi	a5,a5,-16
     1fe:	8f1d                	sub	a4,a4,a5
     200:	963e                	add	a2,a2,a5
     202:	f8c374e3          	bgeu	t1,a2,18a <memset+0x2a>
     206:	b7a5                	j	16e <memset+0xe>

00000208 <NMI_Handler>:
     208:	a001                	j	208 <NMI_Handler>

0000020a <HardFault_Handler>:
     20a:	beef07b7          	lui	a5,0xbeef0
     20e:	e000e737          	lui	a4,0xe000e
     212:	08078793          	addi	a5,a5,128 # beef0080 <_eusrstack+0x9eeeb080>
     216:	c73c                	sw	a5,72(a4)
     218:	a001                	j	218 <HardFault_Handler+0xe>

0000021a <System_Init>:
     21a:	f17ff2ef          	jal	t0,130 <__riscv_save_0>
     21e:	4505                	li	a0,1
     220:	08b000ef          	jal	ra,aaa <NVIC_PriorityGroupConfig>
     224:	29c5                	jal	714 <SystemCoreClockUpdate>
     226:	590010ef          	jal	ra,17b6 <Delay_Init>
     22a:	0b6010ef          	jal	ra,12e0 <ModBus_Init>
     22e:	448010ef          	jal	ra,1676 <AD_Init>
     232:	01e010ef          	jal	ra,1250 <OLED_Init>
     236:	719000ef          	jal	ra,114e <OLED_Clear>
     23a:	00004637          	lui	a2,0x4
     23e:	d9460613          	addi	a2,a2,-620 # 3d94 <memcpy+0xdc>
     242:	4585                	li	a1,1
     244:	4505                	li	a0,1
     246:	799000ef          	jal	ra,11de <OLED_ShowString>
     24a:	00004637          	lui	a2,0x4
     24e:	da060613          	addi	a2,a2,-608 # 3da0 <memcpy+0xe8>
     252:	4585                	li	a1,1
     254:	4509                	li	a0,2
     256:	789000ef          	jal	ra,11de <OLED_ShowString>
     25a:	00004637          	lui	a2,0x4
     25e:	dac60613          	addi	a2,a2,-596 # 3dac <memcpy+0xf4>
     262:	4585                	li	a1,1
     264:	450d                	li	a0,3
     266:	779000ef          	jal	ra,11de <OLED_ShowString>
     26a:	00004637          	lui	a2,0x4
     26e:	db860613          	addi	a2,a2,-584 # 3db8 <memcpy+0x100>
     272:	4585                	li	a1,1
     274:	4511                	li	a0,4
     276:	769000ef          	jal	ra,11de <OLED_ShowString>
     27a:	4601                	li	a2,0
     27c:	04700593          	li	a1,71
     280:	3e700513          	li	a0,999
     284:	41f000ef          	jal	ra,ea2 <TIM3_PWM_Init>
     288:	4601                	li	a2,0
     28a:	04700593          	li	a1,71
     28e:	3e700513          	li	a0,999
     292:	495000ef          	jal	ra,f26 <TIM4_PWM_Init>
     296:	200007b7          	lui	a5,0x20000
     29a:	2307d583          	lhu	a1,560(a5) # 20000230 <pwm1>
     29e:	40000537          	lui	a0,0x40000
     2a2:	40050513          	addi	a0,a0,1024 # 40000400 <_eusrstack+0x1fffb400>
     2a6:	291000ef          	jal	ra,d36 <TIM_SetCompare1>
     2aa:	200007b7          	lui	a5,0x20000
     2ae:	2327d583          	lhu	a1,562(a5) # 20000232 <pwm2>
     2b2:	40001537          	lui	a0,0x40001
     2b6:	80050513          	addi	a0,a0,-2048 # 40000800 <_eusrstack+0x1fffb800>
     2ba:	27d000ef          	jal	ra,d36 <TIM_SetCompare1>
     2be:	bd59                	j	154 <__riscv_restore_0>

000002c0 <Voltage_Get>:
     2c0:	e57ff2ef          	jal	t0,116 <__riscv_save_4>
     2c4:	46a010ef          	jal	ra,172e <AD_GetValue_0>
     2c8:	842a                	mv	s0,a0
     2ca:	4551                	li	a0,20
     2cc:	54a010ef          	jal	ra,1816 <Delay_Ms>
     2d0:	45e010ef          	jal	ra,172e <AD_GetValue_0>
     2d4:	84aa                	mv	s1,a0
     2d6:	4551                	li	a0,20
     2d8:	53e010ef          	jal	ra,1816 <Delay_Ms>
     2dc:	452010ef          	jal	ra,172e <AD_GetValue_0>
     2e0:	9426                	add	s0,s0,s1
     2e2:	9522                	add	a0,a0,s0
     2e4:	478d                	li	a5,3
     2e6:	02f54533          	div	a0,a0,a5
     2ea:	81418493          	addi	s1,gp,-2028 # 20000244 <adc_voltage>
     2ee:	82018413          	addi	s0,gp,-2016 # 20000250 <voltage>
     2f2:	82a19223          	sh	a0,-2012(gp) # 20000254 <voltage_IN>
     2f6:	795020ef          	jal	ra,328a <__floatsidf>
     2fa:	000047b7          	lui	a5,0x4
     2fe:	dc87a603          	lw	a2,-568(a5) # 3dc8 <memcpy+0x110>
     302:	dcc7a683          	lw	a3,-564(a5)
     306:	477010ef          	jal	ra,1f7c <__divdf3>
     30a:	000047b7          	lui	a5,0x4
     30e:	dd07a603          	lw	a2,-560(a5) # 3dd0 <memcpy+0x118>
     312:	dd47a683          	lw	a3,-556(a5)
     316:	37e020ef          	jal	ra,2694 <__muldf3>
     31a:	7c6030ef          	jal	ra,3ae0 <__truncdfsf2>
     31e:	c088                	sw	a0,0(s1)
     320:	714030ef          	jal	ra,3a34 <__extendsfdf2>
     324:	000047b7          	lui	a5,0x4
     328:	dd87a603          	lw	a2,-552(a5) # 3dd8 <memcpy+0x120>
     32c:	ddc7a683          	lw	a3,-548(a5)
     330:	892a                	mv	s2,a0
     332:	89ae                	mv	s3,a1
     334:	1fc020ef          	jal	ra,2530 <__gedf2>
     338:	06a05163          	blez	a0,39a <Voltage_Get+0xda>
     33c:	00004637          	lui	a2,0x4
     340:	e0860613          	addi	a2,a2,-504 # 3e08 <memcpy+0x150>
     344:	458d                	li	a1,3
     346:	4505                	li	a0,1
     348:	697000ef          	jal	ra,11de <OLED_ShowString>
     34c:	4088                	lw	a0,0(s1)
     34e:	6e6030ef          	jal	ra,3a34 <__extendsfdf2>
     352:	000047b7          	lui	a5,0x4
     356:	de07a603          	lw	a2,-544(a5) # 3de0 <memcpy+0x128>
     35a:	de47a683          	lw	a3,-540(a5)
     35e:	7ee020ef          	jal	ra,2b4c <__subdf3>
     362:	000047b7          	lui	a5,0x4
     366:	de87a603          	lw	a2,-536(a5) # 3de8 <memcpy+0x130>
     36a:	dec7a683          	lw	a3,-532(a5)
     36e:	40f010ef          	jal	ra,1f7c <__divdf3>
     372:	000047b7          	lui	a5,0x4
     376:	df07a603          	lw	a2,-528(a5) # 3df0 <memcpy+0x138>
     37a:	df47a683          	lw	a3,-524(a5)
     37e:	316020ef          	jal	ra,2694 <__muldf3>
     382:	000047b7          	lui	a5,0x4
     386:	df87a603          	lw	a2,-520(a5) # 3df8 <memcpy+0x140>
     38a:	dfc7a683          	lw	a3,-516(a5)
     38e:	7be020ef          	jal	ra,2b4c <__subdf3>
     392:	74e030ef          	jal	ra,3ae0 <__truncdfsf2>
     396:	c008                	sw	a0,0(s0)
     398:	bb4d                	j	14a <__riscv_restore_4>
     39a:	000047b7          	lui	a5,0x4
     39e:	e007a603          	lw	a2,-512(a5) # 3e00 <memcpy+0x148>
     3a2:	e047a683          	lw	a3,-508(a5)
     3a6:	854a                	mv	a0,s2
     3a8:	85ce                	mv	a1,s3
     3aa:	234020ef          	jal	ra,25de <__ledf2>
     3ae:	06055063          	bgez	a0,40e <Voltage_Get+0x14e>
     3b2:	00004637          	lui	a2,0x4
     3b6:	e0c60613          	addi	a2,a2,-500 # 3e0c <memcpy+0x154>
     3ba:	458d                	li	a1,3
     3bc:	4505                	li	a0,1
     3be:	621000ef          	jal	ra,11de <OLED_ShowString>
     3c2:	4088                	lw	a0,0(s1)
     3c4:	670030ef          	jal	ra,3a34 <__extendsfdf2>
     3c8:	000047b7          	lui	a5,0x4
     3cc:	862a                	mv	a2,a0
     3ce:	86ae                	mv	a3,a1
     3d0:	de07a503          	lw	a0,-544(a5) # 3de0 <memcpy+0x128>
     3d4:	de47a583          	lw	a1,-540(a5)
     3d8:	774020ef          	jal	ra,2b4c <__subdf3>
     3dc:	000047b7          	lui	a5,0x4
     3e0:	de87a603          	lw	a2,-536(a5) # 3de8 <memcpy+0x130>
     3e4:	dec7a683          	lw	a3,-532(a5)
     3e8:	395010ef          	jal	ra,1f7c <__divdf3>
     3ec:	000047b7          	lui	a5,0x4
     3f0:	df07a603          	lw	a2,-528(a5) # 3df0 <memcpy+0x138>
     3f4:	df47a683          	lw	a3,-524(a5)
     3f8:	29c020ef          	jal	ra,2694 <__muldf3>
     3fc:	000047b7          	lui	a5,0x4
     400:	df87a603          	lw	a2,-520(a5) # 3df8 <memcpy+0x140>
     404:	dfc7a683          	lw	a3,-516(a5)
     408:	444010ef          	jal	ra,184c <__adddf3>
     40c:	b759                	j	392 <Voltage_Get+0xd2>
     40e:	00004637          	lui	a2,0x4
     412:	e1060613          	addi	a2,a2,-496 # 3e10 <memcpy+0x158>
     416:	458d                	li	a1,3
     418:	4505                	li	a0,1
     41a:	5c5000ef          	jal	ra,11de <OLED_ShowString>
     41e:	00000793          	li	a5,0
     422:	c01c                	sw	a5,0(s0)
     424:	bf95                	j	398 <Voltage_Get+0xd8>

00000426 <Electricity_Get>:
     426:	cf1ff2ef          	jal	t0,116 <__riscv_save_4>
     42a:	348010ef          	jal	ra,1772 <AD_GetValue_1>
     42e:	842a                	mv	s0,a0
     430:	4529                	li	a0,10
     432:	3e4010ef          	jal	ra,1816 <Delay_Ms>
     436:	33c010ef          	jal	ra,1772 <AD_GetValue_1>
     43a:	84aa                	mv	s1,a0
     43c:	4529                	li	a0,10
     43e:	3d8010ef          	jal	ra,1816 <Delay_Ms>
     442:	330010ef          	jal	ra,1772 <AD_GetValue_1>
     446:	9426                	add	s0,s0,s1
     448:	9522                	add	a0,a0,s0
     44a:	478d                	li	a5,3
     44c:	02f54533          	div	a0,a0,a5
     450:	81018493          	addi	s1,gp,-2032 # 20000240 <_edata>
     454:	81818413          	addi	s0,gp,-2024 # 20000248 <electricity>
     458:	80a19e23          	sh	a0,-2020(gp) # 2000024c <electricity_IN>
     45c:	62f020ef          	jal	ra,328a <__floatsidf>
     460:	000047b7          	lui	a5,0x4
     464:	dc87a603          	lw	a2,-568(a5) # 3dc8 <memcpy+0x110>
     468:	dcc7a683          	lw	a3,-564(a5)
     46c:	311010ef          	jal	ra,1f7c <__divdf3>
     470:	000047b7          	lui	a5,0x4
     474:	dd07a603          	lw	a2,-560(a5) # 3dd0 <memcpy+0x118>
     478:	dd47a683          	lw	a3,-556(a5)
     47c:	218020ef          	jal	ra,2694 <__muldf3>
     480:	660030ef          	jal	ra,3ae0 <__truncdfsf2>
     484:	c088                	sw	a0,0(s1)
     486:	5ae030ef          	jal	ra,3a34 <__extendsfdf2>
     48a:	000047b7          	lui	a5,0x4
     48e:	d707a603          	lw	a2,-656(a5) # 3d70 <memcpy+0xb8>
     492:	d747a683          	lw	a3,-652(a5)
     496:	892a                	mv	s2,a0
     498:	89ae                	mv	s3,a1
     49a:	096020ef          	jal	ra,2530 <__gedf2>
     49e:	04a05163          	blez	a0,4e0 <Electricity_Get+0xba>
     4a2:	00004637          	lui	a2,0x4
     4a6:	e0860613          	addi	a2,a2,-504 # 3e08 <memcpy+0x150>
     4aa:	458d                	li	a1,3
     4ac:	4509                	li	a0,2
     4ae:	531000ef          	jal	ra,11de <OLED_ShowString>
     4b2:	4088                	lw	a0,0(s1)
     4b4:	580030ef          	jal	ra,3a34 <__extendsfdf2>
     4b8:	000047b7          	lui	a5,0x4
     4bc:	d787a603          	lw	a2,-648(a5) # 3d78 <memcpy+0xc0>
     4c0:	d7c7a683          	lw	a3,-644(a5)
     4c4:	688020ef          	jal	ra,2b4c <__subdf3>
     4c8:	000047b7          	lui	a5,0x4
     4cc:	d807a603          	lw	a2,-640(a5) # 3d80 <memcpy+0xc8>
     4d0:	d847a683          	lw	a3,-636(a5)
     4d4:	1c0020ef          	jal	ra,2694 <__muldf3>
     4d8:	608030ef          	jal	ra,3ae0 <__truncdfsf2>
     4dc:	c008                	sw	a0,0(s0)
     4de:	b1b5                	j	14a <__riscv_restore_4>
     4e0:	000047b7          	lui	a5,0x4
     4e4:	d887a603          	lw	a2,-632(a5) # 3d88 <memcpy+0xd0>
     4e8:	d8c7a683          	lw	a3,-628(a5)
     4ec:	854a                	mv	a0,s2
     4ee:	85ce                	mv	a1,s3
     4f0:	0ee020ef          	jal	ra,25de <__ledf2>
     4f4:	02055663          	bgez	a0,520 <Electricity_Get+0xfa>
     4f8:	00004637          	lui	a2,0x4
     4fc:	e0c60613          	addi	a2,a2,-500 # 3e0c <memcpy+0x154>
     500:	458d                	li	a1,3
     502:	4509                	li	a0,2
     504:	4db000ef          	jal	ra,11de <OLED_ShowString>
     508:	4088                	lw	a0,0(s1)
     50a:	52a030ef          	jal	ra,3a34 <__extendsfdf2>
     50e:	000047b7          	lui	a5,0x4
     512:	862a                	mv	a2,a0
     514:	86ae                	mv	a3,a1
     516:	d787a503          	lw	a0,-648(a5) # 3d78 <memcpy+0xc0>
     51a:	d7c7a583          	lw	a1,-644(a5)
     51e:	b75d                	j	4c4 <Electricity_Get+0x9e>
     520:	00004637          	lui	a2,0x4
     524:	e1060613          	addi	a2,a2,-496 # 3e10 <memcpy+0x158>
     528:	458d                	li	a1,3
     52a:	4509                	li	a0,2
     52c:	4b3000ef          	jal	ra,11de <OLED_ShowString>
     530:	00000793          	li	a5,0
     534:	c01c                	sw	a5,0(s0)
     536:	b765                	j	4de <Electricity_Get+0xb8>

00000538 <OLED_Updata>:
     538:	bf9ff2ef          	jal	t0,130 <__riscv_save_0>
     53c:	82018413          	addi	s0,gp,-2016 # 20000250 <voltage>
     540:	4008                	lw	a0,0(s0)
     542:	000044b7          	lui	s1,0x4
     546:	3d2030ef          	jal	ra,3918 <__fixunssfsi>
     54a:	01051613          	slli	a2,a0,0x10
     54e:	4689                	li	a3,2
     550:	8241                	srli	a2,a2,0x10
     552:	4591                	li	a1,4
     554:	4505                	li	a0,1
     556:	4b7000ef          	jal	ra,120c <OLED_ShowNum>
     55a:	4000                	lw	s0,0(s0)
     55c:	8522                	mv	a0,s0
     55e:	3ba030ef          	jal	ra,3918 <__fixunssfsi>
     562:	0542                	slli	a0,a0,0x10
     564:	8141                	srli	a0,a0,0x10
     566:	408030ef          	jal	ra,396e <__floatsisf>
     56a:	85aa                	mv	a1,a0
     56c:	8522                	mv	a0,s0
     56e:	022030ef          	jal	ra,3590 <__subsf3>
     572:	d904a583          	lw	a1,-624(s1) # 3d90 <memcpy+0xd8>
     576:	81818413          	addi	s0,gp,-2024 # 20000248 <electricity>
     57a:	583020ef          	jal	ra,32fc <__mulsf3>
     57e:	39a030ef          	jal	ra,3918 <__fixunssfsi>
     582:	01051613          	slli	a2,a0,0x10
     586:	468d                	li	a3,3
     588:	8241                	srli	a2,a2,0x10
     58a:	459d                	li	a1,7
     58c:	4505                	li	a0,1
     58e:	47f000ef          	jal	ra,120c <OLED_ShowNum>
     592:	4008                	lw	a0,0(s0)
     594:	384030ef          	jal	ra,3918 <__fixunssfsi>
     598:	01051613          	slli	a2,a0,0x10
     59c:	4685                	li	a3,1
     59e:	8241                	srli	a2,a2,0x10
     5a0:	4591                	li	a1,4
     5a2:	4509                	li	a0,2
     5a4:	469000ef          	jal	ra,120c <OLED_ShowNum>
     5a8:	4000                	lw	s0,0(s0)
     5aa:	8522                	mv	a0,s0
     5ac:	36c030ef          	jal	ra,3918 <__fixunssfsi>
     5b0:	0542                	slli	a0,a0,0x10
     5b2:	8141                	srli	a0,a0,0x10
     5b4:	3ba030ef          	jal	ra,396e <__floatsisf>
     5b8:	85aa                	mv	a1,a0
     5ba:	8522                	mv	a0,s0
     5bc:	7d5020ef          	jal	ra,3590 <__subsf3>
     5c0:	d904a583          	lw	a1,-624(s1)
     5c4:	4429                	li	s0,10
     5c6:	537020ef          	jal	ra,32fc <__mulsf3>
     5ca:	34e030ef          	jal	ra,3918 <__fixunssfsi>
     5ce:	01051613          	slli	a2,a0,0x10
     5d2:	468d                	li	a3,3
     5d4:	8241                	srli	a2,a2,0x10
     5d6:	4599                	li	a1,6
     5d8:	4509                	li	a0,2
     5da:	433000ef          	jal	ra,120c <OLED_ShowNum>
     5de:	200007b7          	lui	a5,0x20000
     5e2:	2307d603          	lhu	a2,560(a5) # 20000230 <pwm1>
     5e6:	468d                	li	a3,3
     5e8:	4599                	li	a1,6
     5ea:	02865633          	divu	a2,a2,s0
     5ee:	450d                	li	a0,3
     5f0:	41d000ef          	jal	ra,120c <OLED_ShowNum>
     5f4:	200007b7          	lui	a5,0x20000
     5f8:	2327d603          	lhu	a2,562(a5) # 20000232 <pwm2>
     5fc:	468d                	li	a3,3
     5fe:	4599                	li	a1,6
     600:	02865633          	divu	a2,a2,s0
     604:	4511                	li	a0,4
     606:	407000ef          	jal	ra,120c <OLED_ShowNum>
     60a:	b6a9                	j	154 <__riscv_restore_0>

0000060c <main>:
     60c:	b25ff2ef          	jal	t0,130 <__riscv_save_0>
     610:	3129                	jal	21a <System_Init>
     612:	317d                	jal	2c0 <Voltage_Get>
     614:	0c800513          	li	a0,200
     618:	1fe010ef          	jal	ra,1816 <Delay_Ms>
     61c:	3529                	jal	426 <Electricity_Get>
     61e:	3f29                	jal	538 <OLED_Updata>
     620:	0c800513          	li	a0,200
     624:	1f2010ef          	jal	ra,1816 <Delay_Ms>
     628:	b7ed                	j	612 <main+0x6>

0000062a <SystemInit>:
     62a:	400217b7          	lui	a5,0x40021
     62e:	4398                	lw	a4,0(a5)
     630:	f0ff06b7          	lui	a3,0xf0ff0
     634:	1141                	addi	sp,sp,-16
     636:	00176713          	ori	a4,a4,1
     63a:	c398                	sw	a4,0(a5)
     63c:	43d8                	lw	a4,4(a5)
     63e:	00020637          	lui	a2,0x20
     642:	8f75                	and	a4,a4,a3
     644:	c3d8                	sw	a4,4(a5)
     646:	4398                	lw	a4,0(a5)
     648:	fef706b7          	lui	a3,0xfef70
     64c:	16fd                	addi	a3,a3,-1
     64e:	8f75                	and	a4,a4,a3
     650:	c398                	sw	a4,0(a5)
     652:	4398                	lw	a4,0(a5)
     654:	fffc06b7          	lui	a3,0xfffc0
     658:	16fd                	addi	a3,a3,-1
     65a:	8f75                	and	a4,a4,a3
     65c:	c398                	sw	a4,0(a5)
     65e:	43d8                	lw	a4,4(a5)
     660:	ff0106b7          	lui	a3,0xff010
     664:	16fd                	addi	a3,a3,-1
     666:	8f75                	and	a4,a4,a3
     668:	c3d8                	sw	a4,4(a5)
     66a:	009f0737          	lui	a4,0x9f0
     66e:	c798                	sw	a4,8(a5)
     670:	c402                	sw	zero,8(sp)
     672:	c602                	sw	zero,12(sp)
     674:	4398                	lw	a4,0(a5)
     676:	66c1                	lui	a3,0x10
     678:	8f55                	or	a4,a4,a3
     67a:	c398                	sw	a4,0(a5)
     67c:	400216b7          	lui	a3,0x40021
     680:	6705                	lui	a4,0x1
     682:	429c                	lw	a5,0(a3)
     684:	8ff1                	and	a5,a5,a2
     686:	c63e                	sw	a5,12(sp)
     688:	47a2                	lw	a5,8(sp)
     68a:	0785                	addi	a5,a5,1
     68c:	c43e                	sw	a5,8(sp)
     68e:	47b2                	lw	a5,12(sp)
     690:	e781                	bnez	a5,698 <SystemInit+0x6e>
     692:	47a2                	lw	a5,8(sp)
     694:	fee797e3          	bne	a5,a4,682 <SystemInit+0x58>
     698:	400217b7          	lui	a5,0x40021
     69c:	439c                	lw	a5,0(a5)
     69e:	00e79713          	slli	a4,a5,0xe
     6a2:	06075763          	bgez	a4,710 <SystemInit+0xe6>
     6a6:	4785                	li	a5,1
     6a8:	c63e                	sw	a5,12(sp)
     6aa:	4732                	lw	a4,12(sp)
     6ac:	4785                	li	a5,1
     6ae:	04f71f63          	bne	a4,a5,70c <SystemInit+0xe2>
     6b2:	400217b7          	lui	a5,0x40021
     6b6:	43d8                	lw	a4,4(a5)
     6b8:	ffc106b7          	lui	a3,0xffc10
     6bc:	16fd                	addi	a3,a3,-1
     6be:	c3d8                	sw	a4,4(a5)
     6c0:	43d8                	lw	a4,4(a5)
     6c2:	c3d8                	sw	a4,4(a5)
     6c4:	43d8                	lw	a4,4(a5)
     6c6:	40076713          	ori	a4,a4,1024
     6ca:	c3d8                	sw	a4,4(a5)
     6cc:	43d8                	lw	a4,4(a5)
     6ce:	8f75                	and	a4,a4,a3
     6d0:	c3d8                	sw	a4,4(a5)
     6d2:	43d8                	lw	a4,4(a5)
     6d4:	001d06b7          	lui	a3,0x1d0
     6d8:	8f55                	or	a4,a4,a3
     6da:	c3d8                	sw	a4,4(a5)
     6dc:	4398                	lw	a4,0(a5)
     6de:	010006b7          	lui	a3,0x1000
     6e2:	8f55                	or	a4,a4,a3
     6e4:	c398                	sw	a4,0(a5)
     6e6:	4398                	lw	a4,0(a5)
     6e8:	00671693          	slli	a3,a4,0x6
     6ec:	fe06dde3          	bgez	a3,6e6 <SystemInit+0xbc>
     6f0:	43d8                	lw	a4,4(a5)
     6f2:	400216b7          	lui	a3,0x40021
     6f6:	9b71                	andi	a4,a4,-4
     6f8:	c3d8                	sw	a4,4(a5)
     6fa:	43d8                	lw	a4,4(a5)
     6fc:	00276713          	ori	a4,a4,2
     700:	c3d8                	sw	a4,4(a5)
     702:	4721                	li	a4,8
     704:	42dc                	lw	a5,4(a3)
     706:	8bb1                	andi	a5,a5,12
     708:	fee79ee3          	bne	a5,a4,704 <SystemInit+0xda>
     70c:	0141                	addi	sp,sp,16
     70e:	8082                	ret
     710:	c602                	sw	zero,12(sp)
     712:	bf61                	j	6aa <SystemInit+0x80>

00000714 <SystemCoreClockUpdate>:
     714:	400216b7          	lui	a3,0x40021
     718:	42dc                	lw	a5,4(a3)
     71a:	4611                	li	a2,4
     71c:	8bb1                	andi	a5,a5,12
     71e:	80418713          	addi	a4,gp,-2044 # 20000234 <SystemCoreClock>
     722:	00c78563          	beq	a5,a2,72c <SystemCoreClockUpdate+0x18>
     726:	4621                	li	a2,8
     728:	02c78863          	beq	a5,a2,758 <SystemCoreClockUpdate+0x44>
     72c:	007a17b7          	lui	a5,0x7a1
     730:	20078793          	addi	a5,a5,512 # 7a1200 <_data_lma+0x79cc3c>
     734:	c31c                	sw	a5,0(a4)
     736:	400217b7          	lui	a5,0x40021
     73a:	43dc                	lw	a5,4(a5)
     73c:	8391                	srli	a5,a5,0x4
     73e:	00f7f693          	andi	a3,a5,15
     742:	200007b7          	lui	a5,0x20000
     746:	00078793          	mv	a5,a5
     74a:	97b6                	add	a5,a5,a3
     74c:	2394                	lbu	a3,0(a5)
     74e:	431c                	lw	a5,0(a4)
     750:	00d7d7b3          	srl	a5,a5,a3
     754:	c31c                	sw	a5,0(a4)
     756:	8082                	ret
     758:	42dc                	lw	a5,4(a3)
     75a:	42d4                	lw	a3,4(a3)
     75c:	6641                	lui	a2,0x10
     75e:	83c9                	srli	a5,a5,0x12
     760:	8bbd                	andi	a5,a5,15
     762:	8ef1                	and	a3,a3,a2
     764:	0789                	addi	a5,a5,2
     766:	4645                	li	a2,17
     768:	00c79363          	bne	a5,a2,76e <SystemCoreClockUpdate+0x5a>
     76c:	47c9                	li	a5,18
     76e:	ee81                	bnez	a3,786 <SystemCoreClockUpdate+0x72>
     770:	400246b7          	lui	a3,0x40024
     774:	8006a683          	lw	a3,-2048(a3) # 40023800 <_eusrstack+0x2001e800>
     778:	8ac1                	andi	a3,a3,16
     77a:	ce89                	beqz	a3,794 <SystemCoreClockUpdate+0x80>
     77c:	007a16b7          	lui	a3,0x7a1
     780:	20068693          	addi	a3,a3,512 # 7a1200 <_data_lma+0x79cc3c>
     784:	a821                	j	79c <SystemCoreClockUpdate+0x88>
     786:	400216b7          	lui	a3,0x40021
     78a:	42d4                	lw	a3,4(a3)
     78c:	00e69613          	slli	a2,a3,0xe
     790:	fe0656e3          	bgez	a2,77c <SystemCoreClockUpdate+0x68>
     794:	003d16b7          	lui	a3,0x3d1
     798:	90068693          	addi	a3,a3,-1792 # 3d0900 <_data_lma+0x3cc33c>
     79c:	02d787b3          	mul	a5,a5,a3
     7a0:	bf51                	j	734 <SystemCoreClockUpdate+0x20>

000007a2 <ADC1_2_IRQHandler>:
     7a2:	a001                	j	7a2 <ADC1_2_IRQHandler>

000007a4 <handle_reset>:
     7a4:	20000197          	auipc	gp,0x20000
     7a8:	28c18193          	addi	gp,gp,652 # 20000a30 <__global_pointer$>
     7ac:	20005117          	auipc	sp,0x20005
     7b0:	85410113          	addi	sp,sp,-1964 # 20005000 <_eusrstack>
     7b4:	00004517          	auipc	a0,0x4
     7b8:	e1050513          	addi	a0,a0,-496 # 45c4 <_data_lma>
     7bc:	20000597          	auipc	a1,0x20000
     7c0:	84458593          	addi	a1,a1,-1980 # 20000000 <_data_vma>
     7c4:	81018613          	addi	a2,gp,-2032 # 20000240 <_edata>
     7c8:	00c5fa63          	bgeu	a1,a2,7dc <handle_reset+0x38>
     7cc:	00052283          	lw	t0,0(a0)
     7d0:	0055a023          	sw	t0,0(a1)
     7d4:	0511                	addi	a0,a0,4
     7d6:	0591                	addi	a1,a1,4
     7d8:	fec5eae3          	bltu	a1,a2,7cc <handle_reset+0x28>
     7dc:	81018513          	addi	a0,gp,-2032 # 20000240 <_edata>
     7e0:	95818593          	addi	a1,gp,-1704 # 20000388 <_ebss>
     7e4:	00b57763          	bgeu	a0,a1,7f2 <handle_reset+0x4e>
     7e8:	00052023          	sw	zero,0(a0)
     7ec:	0511                	addi	a0,a0,4
     7ee:	feb56de3          	bltu	a0,a1,7e8 <handle_reset+0x44>
     7f2:	42fd                	li	t0,31
     7f4:	bc029073          	csrw	0xbc0,t0
     7f8:	428d                	li	t0,3
     7fa:	80429073          	csrw	0x804,t0
     7fe:	08800293          	li	t0,136
     802:	30029073          	csrw	mstatus,t0
     806:	fffff297          	auipc	t0,0xfffff
     80a:	7fe28293          	addi	t0,t0,2046 # 4 <_einit>
     80e:	0032e293          	ori	t0,t0,3
     812:	30529073          	csrw	mtvec,t0
     816:	e15ff0ef          	jal	ra,62a <SystemInit>
     81a:	00000297          	auipc	t0,0x0
     81e:	df228293          	addi	t0,t0,-526 # 60c <main>
     822:	34129073          	csrw	mepc,t0
     826:	30200073          	mret

0000082a <ADC_Init>:
     82a:	415c                	lw	a5,4(a0)
     82c:	e0f10737          	lui	a4,0xe0f10
     830:	eff70713          	addi	a4,a4,-257 # e0f0feff <_eusrstack+0xc0f0aeff>
     834:	4d94                	lw	a3,24(a1)
     836:	8f7d                	and	a4,a4,a5
     838:	419c                	lw	a5,0(a1)
     83a:	8fd5                	or	a5,a5,a3
     83c:	4dd4                	lw	a3,28(a1)
     83e:	8fd5                	or	a5,a5,a3
     840:	41d4                	lw	a3,4(a1)
     842:	06a2                	slli	a3,a3,0x8
     844:	8fd5                	or	a5,a5,a3
     846:	8fd9                	or	a5,a5,a4
     848:	c15c                	sw	a5,4(a0)
     84a:	451c                	lw	a5,8(a0)
     84c:	fff1f737          	lui	a4,0xfff1f
     850:	7fd70713          	addi	a4,a4,2045 # fff1f7fd <_eusrstack+0xdff1a7fd>
     854:	45d4                	lw	a3,12(a1)
     856:	8f7d                	and	a4,a4,a5
     858:	499c                	lw	a5,16(a1)
     85a:	8fd5                	or	a5,a5,a3
     85c:	4594                	lw	a3,8(a1)
     85e:	0686                	slli	a3,a3,0x1
     860:	8fd5                	or	a5,a5,a3
     862:	8fd9                	or	a5,a5,a4
     864:	c51c                	sw	a5,8(a0)
     866:	555c                	lw	a5,44(a0)
     868:	ff100737          	lui	a4,0xff100
     86c:	177d                	addi	a4,a4,-1
     86e:	8f7d                	and	a4,a4,a5
     870:	29dc                	lbu	a5,20(a1)
     872:	17fd                	addi	a5,a5,-1
     874:	0ff7f793          	andi	a5,a5,255
     878:	07d2                	slli	a5,a5,0x14
     87a:	8fd9                	or	a5,a5,a4
     87c:	d55c                	sw	a5,44(a0)
     87e:	8082                	ret

00000880 <ADC_Cmd>:
     880:	451c                	lw	a5,8(a0)
     882:	c589                	beqz	a1,88c <ADC_Cmd+0xc>
     884:	0017e793          	ori	a5,a5,1
     888:	c51c                	sw	a5,8(a0)
     88a:	8082                	ret
     88c:	9bf9                	andi	a5,a5,-2
     88e:	bfed                	j	888 <ADC_Cmd+0x8>

00000890 <ADC_ResetCalibration>:
     890:	451c                	lw	a5,8(a0)
     892:	0087e793          	ori	a5,a5,8
     896:	c51c                	sw	a5,8(a0)
     898:	8082                	ret

0000089a <ADC_GetResetCalibrationStatus>:
     89a:	4508                	lw	a0,8(a0)
     89c:	810d                	srli	a0,a0,0x3
     89e:	8905                	andi	a0,a0,1
     8a0:	8082                	ret

000008a2 <ADC_StartCalibration>:
     8a2:	451c                	lw	a5,8(a0)
     8a4:	0047e793          	ori	a5,a5,4
     8a8:	c51c                	sw	a5,8(a0)
     8aa:	8082                	ret

000008ac <ADC_GetCalibrationStatus>:
     8ac:	4508                	lw	a0,8(a0)
     8ae:	8109                	srli	a0,a0,0x2
     8b0:	8905                	andi	a0,a0,1
     8b2:	8082                	ret

000008b4 <ADC_SoftwareStartConvCmd>:
     8b4:	451c                	lw	a5,8(a0)
     8b6:	c591                	beqz	a1,8c2 <ADC_SoftwareStartConvCmd+0xe>
     8b8:	00500737          	lui	a4,0x500
     8bc:	8fd9                	or	a5,a5,a4
     8be:	c51c                	sw	a5,8(a0)
     8c0:	8082                	ret
     8c2:	ffb00737          	lui	a4,0xffb00
     8c6:	177d                	addi	a4,a4,-1
     8c8:	8ff9                	and	a5,a5,a4
     8ca:	bfd5                	j	8be <ADC_SoftwareStartConvCmd+0xa>

000008cc <ADC_RegularChannelConfig>:
     8cc:	47a5                	li	a5,9
     8ce:	04b7f763          	bgeu	a5,a1,91c <ADC_RegularChannelConfig+0x50>
     8d2:	478d                	li	a5,3
     8d4:	ff658713          	addi	a4,a1,-10
     8d8:	02f70733          	mul	a4,a4,a5
     8dc:	00c52803          	lw	a6,12(a0)
     8e0:	479d                	li	a5,7
     8e2:	00e797b3          	sll	a5,a5,a4
     8e6:	fff7c793          	not	a5,a5
     8ea:	0107f7b3          	and	a5,a5,a6
     8ee:	00e696b3          	sll	a3,a3,a4
     8f2:	8edd                	or	a3,a3,a5
     8f4:	c554                	sw	a3,12(a0)
     8f6:	4799                	li	a5,6
     8f8:	04c7e363          	bltu	a5,a2,93e <ADC_RegularChannelConfig+0x72>
     8fc:	4795                	li	a5,5
     8fe:	167d                	addi	a2,a2,-1
     900:	02f60633          	mul	a2,a2,a5
     904:	5958                	lw	a4,52(a0)
     906:	47fd                	li	a5,31
     908:	00c797b3          	sll	a5,a5,a2
     90c:	fff7c793          	not	a5,a5
     910:	8ff9                	and	a5,a5,a4
     912:	00c59633          	sll	a2,a1,a2
     916:	8e5d                	or	a2,a2,a5
     918:	d950                	sw	a2,52(a0)
     91a:	8082                	ret
     91c:	470d                	li	a4,3
     91e:	02e58733          	mul	a4,a1,a4
     922:	01052803          	lw	a6,16(a0)
     926:	479d                	li	a5,7
     928:	00e797b3          	sll	a5,a5,a4
     92c:	fff7c793          	not	a5,a5
     930:	0107f7b3          	and	a5,a5,a6
     934:	00e696b3          	sll	a3,a3,a4
     938:	8edd                	or	a3,a3,a5
     93a:	c914                	sw	a3,16(a0)
     93c:	bf6d                	j	8f6 <ADC_RegularChannelConfig+0x2a>
     93e:	47b1                	li	a5,12
     940:	02c7e263          	bltu	a5,a2,964 <ADC_RegularChannelConfig+0x98>
     944:	4795                	li	a5,5
     946:	1665                	addi	a2,a2,-7
     948:	02f60633          	mul	a2,a2,a5
     94c:	5918                	lw	a4,48(a0)
     94e:	47fd                	li	a5,31
     950:	00c797b3          	sll	a5,a5,a2
     954:	fff7c793          	not	a5,a5
     958:	8ff9                	and	a5,a5,a4
     95a:	00c59633          	sll	a2,a1,a2
     95e:	8e5d                	or	a2,a2,a5
     960:	d910                	sw	a2,48(a0)
     962:	8082                	ret
     964:	4795                	li	a5,5
     966:	164d                	addi	a2,a2,-13
     968:	02f60633          	mul	a2,a2,a5
     96c:	5558                	lw	a4,44(a0)
     96e:	47fd                	li	a5,31
     970:	00c797b3          	sll	a5,a5,a2
     974:	fff7c793          	not	a5,a5
     978:	8ff9                	and	a5,a5,a4
     97a:	00c595b3          	sll	a1,a1,a2
     97e:	8ddd                	or	a1,a1,a5
     980:	d54c                	sw	a1,44(a0)
     982:	8082                	ret

00000984 <ADC_GetConversionValue>:
     984:	4568                	lw	a0,76(a0)
     986:	0542                	slli	a0,a0,0x10
     988:	8141                	srli	a0,a0,0x10
     98a:	8082                	ret

0000098c <ADC_GetFlagStatus>:
     98c:	4108                	lw	a0,0(a0)
     98e:	8d6d                	and	a0,a0,a1
     990:	00a03533          	snez	a0,a0
     994:	8082                	ret

00000996 <ADC_ClearFlag>:
     996:	fff5c593          	not	a1,a1
     99a:	c10c                	sw	a1,0(a0)
     99c:	8082                	ret

0000099e <GPIO_Init>:
     99e:	459c                	lw	a5,8(a1)
     9a0:	0107f713          	andi	a4,a5,16
     9a4:	00f7f813          	andi	a6,a5,15
     9a8:	c701                	beqz	a4,9b0 <GPIO_Init+0x12>
     9aa:	41d8                	lw	a4,4(a1)
     9ac:	00e86833          	or	a6,a6,a4
     9b0:	40022737          	lui	a4,0x40022
     9b4:	5b14                	lw	a3,48(a4)
     9b6:	0f000737          	lui	a4,0xf000
     9ba:	8f75                	and	a4,a4,a3
     9bc:	eb4d                	bnez	a4,a6e <GPIO_Init+0xd0>
     9be:	4685                	li	a3,1
     9c0:	82d18323          	sb	a3,-2010(gp) # 20000256 <MCU_Version>
     9c4:	40011737          	lui	a4,0x40011
     9c8:	00e51563          	bne	a0,a4,9d2 <GPIO_Init+0x34>
     9cc:	219a                	lhu	a4,0(a1)
     9ce:	8335                	srli	a4,a4,0xd
     9d0:	a19a                	sh	a4,0(a1)
     9d2:	218e                	lhu	a1,0(a1)
     9d4:	0ff5f713          	andi	a4,a1,255
     9d8:	c339                	beqz	a4,a1e <GPIO_Init+0x80>
     9da:	4118                	lw	a4,0(a0)
     9dc:	4681                	li	a3,0
     9de:	4e85                	li	t4,1
     9e0:	4f3d                	li	t5,15
     9e2:	02800f93          	li	t6,40
     9e6:	04800293          	li	t0,72
     9ea:	4e21                	li	t3,8
     9ec:	00de9633          	sll	a2,t4,a3
     9f0:	00c5f8b3          	and	a7,a1,a2
     9f4:	03161163          	bne	a2,a7,a16 <GPIO_Init+0x78>
     9f8:	00269893          	slli	a7,a3,0x2
     9fc:	011f1333          	sll	t1,t5,a7
     a00:	fff34313          	not	t1,t1
     a04:	00e37733          	and	a4,t1,a4
     a08:	011818b3          	sll	a7,a6,a7
     a0c:	00e8e733          	or	a4,a7,a4
     a10:	07f79763          	bne	a5,t6,a7e <GPIO_Init+0xe0>
     a14:	c950                	sw	a2,20(a0)
     a16:	0685                	addi	a3,a3,1
     a18:	fdc69ae3          	bne	a3,t3,9ec <GPIO_Init+0x4e>
     a1c:	c118                	sw	a4,0(a0)
     a1e:	0ff00713          	li	a4,255
     a22:	04b77563          	bgeu	a4,a1,a6c <GPIO_Init+0xce>
     a26:	4154                	lw	a3,4(a0)
     a28:	4621                	li	a2,8
     a2a:	4e85                	li	t4,1
     a2c:	4f3d                	li	t5,15
     a2e:	02800f93          	li	t6,40
     a32:	04800293          	li	t0,72
     a36:	4e41                	li	t3,16
     a38:	00ce98b3          	sll	a7,t4,a2
     a3c:	0115f733          	and	a4,a1,a7
     a40:	02e89263          	bne	a7,a4,a64 <GPIO_Init+0xc6>
     a44:	00261713          	slli	a4,a2,0x2
     a48:	1701                	addi	a4,a4,-32
     a4a:	00ef1333          	sll	t1,t5,a4
     a4e:	fff34313          	not	t1,t1
     a52:	00d376b3          	and	a3,t1,a3
     a56:	00e81733          	sll	a4,a6,a4
     a5a:	8ed9                	or	a3,a3,a4
     a5c:	03f79563          	bne	a5,t6,a86 <GPIO_Init+0xe8>
     a60:	01152a23          	sw	a7,20(a0)
     a64:	0605                	addi	a2,a2,1
     a66:	fdc619e3          	bne	a2,t3,a38 <GPIO_Init+0x9a>
     a6a:	c154                	sw	a3,4(a0)
     a6c:	8082                	ret
     a6e:	40011737          	lui	a4,0x40011
     a72:	f6e510e3          	bne	a0,a4,9d2 <GPIO_Init+0x34>
     a76:	8261c703          	lbu	a4,-2010(gp) # 20000256 <MCU_Version>
     a7a:	df21                	beqz	a4,9d2 <GPIO_Init+0x34>
     a7c:	bf81                	j	9cc <GPIO_Init+0x2e>
     a7e:	f8579ce3          	bne	a5,t0,a16 <GPIO_Init+0x78>
     a82:	c910                	sw	a2,16(a0)
     a84:	bf49                	j	a16 <GPIO_Init+0x78>
     a86:	fc579fe3          	bne	a5,t0,a64 <GPIO_Init+0xc6>
     a8a:	01152823          	sw	a7,16(a0)
     a8e:	bfd9                	j	a64 <GPIO_Init+0xc6>

00000a90 <GPIO_WriteBit>:
     a90:	400117b7          	lui	a5,0x40011
     a94:	00f51663          	bne	a0,a5,aa0 <GPIO_WriteBit+0x10>
     a98:	8261c783          	lbu	a5,-2010(gp) # 20000256 <MCU_Version>
     a9c:	c391                	beqz	a5,aa0 <GPIO_WriteBit+0x10>
     a9e:	81b5                	srli	a1,a1,0xd
     aa0:	c219                	beqz	a2,aa6 <GPIO_WriteBit+0x16>
     aa2:	c90c                	sw	a1,16(a0)
     aa4:	8082                	ret
     aa6:	c94c                	sw	a1,20(a0)
     aa8:	8082                	ret

00000aaa <NVIC_PriorityGroupConfig>:
     aaa:	82a1a423          	sw	a0,-2008(gp) # 20000258 <NVIC_Priority_Group>
     aae:	8082                	ret

00000ab0 <NVIC_Init>:
     ab0:	8281a703          	lw	a4,-2008(gp) # 20000258 <NVIC_Priority_Group>
     ab4:	4785                	li	a5,1
     ab6:	2114                	lbu	a3,0(a0)
     ab8:	02f71063          	bne	a4,a5,ad8 <NVIC_Init+0x28>
     abc:	311c                	lbu	a5,1(a0)
     abe:	02e79c63          	bne	a5,a4,af6 <NVIC_Init+0x46>
     ac2:	213c                	lbu	a5,2(a0)
     ac4:	0796                	slli	a5,a5,0x5
     ac6:	f807e793          	ori	a5,a5,-128
     aca:	e000e737          	lui	a4,0xe000e
     ace:	0ff7f793          	andi	a5,a5,255
     ad2:	9736                	add	a4,a4,a3
     ad4:	40f70023          	sb	a5,1024(a4) # e000e400 <_eusrstack+0xc0009400>
     ad8:	4705                	li	a4,1
     ada:	0056d793          	srli	a5,a3,0x5
     ade:	00d71733          	sll	a4,a4,a3
     ae2:	4154                	lw	a3,4(a0)
     ae4:	ce89                	beqz	a3,afe <NVIC_Init+0x4e>
     ae6:	04078793          	addi	a5,a5,64 # 40011040 <_eusrstack+0x2000c040>
     aea:	078a                	slli	a5,a5,0x2
     aec:	e000e6b7          	lui	a3,0xe000e
     af0:	97b6                	add	a5,a5,a3
     af2:	c398                	sw	a4,0(a5)
     af4:	8082                	ret
     af6:	f3ed                	bnez	a5,ad8 <NVIC_Init+0x28>
     af8:	213c                	lbu	a5,2(a0)
     afa:	0796                	slli	a5,a5,0x5
     afc:	b7f9                	j	aca <NVIC_Init+0x1a>
     afe:	06078793          	addi	a5,a5,96
     b02:	b7e5                	j	aea <NVIC_Init+0x3a>

00000b04 <RCC_ADCCLKConfig>:
     b04:	400216b7          	lui	a3,0x40021
     b08:	42dc                	lw	a5,4(a3)
     b0a:	7751                	lui	a4,0xffff4
     b0c:	177d                	addi	a4,a4,-1
     b0e:	8ff9                	and	a5,a5,a4
     b10:	8d5d                	or	a0,a0,a5
     b12:	c2c8                	sw	a0,4(a3)
     b14:	8082                	ret

00000b16 <RCC_GetClocksFreq>:
     b16:	40021737          	lui	a4,0x40021
     b1a:	435c                	lw	a5,4(a4)
     b1c:	4691                	li	a3,4
     b1e:	8bb1                	andi	a5,a5,12
     b20:	00d78563          	beq	a5,a3,b2a <RCC_GetClocksFreq+0x14>
     b24:	46a1                	li	a3,8
     b26:	06d78263          	beq	a5,a3,b8a <RCC_GetClocksFreq+0x74>
     b2a:	007a17b7          	lui	a5,0x7a1
     b2e:	20078793          	addi	a5,a5,512 # 7a1200 <_data_lma+0x79cc3c>
     b32:	c11c                	sw	a5,0(a0)
     b34:	40021637          	lui	a2,0x40021
     b38:	425c                	lw	a5,4(a2)
     b3a:	20000737          	lui	a4,0x20000
     b3e:	01070713          	addi	a4,a4,16 # 20000010 <APBAHBPrescTable>
     b42:	8391                	srli	a5,a5,0x4
     b44:	8bbd                	andi	a5,a5,15
     b46:	97ba                	add	a5,a5,a4
     b48:	2394                	lbu	a3,0(a5)
     b4a:	411c                	lw	a5,0(a0)
     b4c:	00d7d7b3          	srl	a5,a5,a3
     b50:	c15c                	sw	a5,4(a0)
     b52:	4254                	lw	a3,4(a2)
     b54:	82a1                	srli	a3,a3,0x8
     b56:	8a9d                	andi	a3,a3,7
     b58:	96ba                	add	a3,a3,a4
     b5a:	2294                	lbu	a3,0(a3)
     b5c:	00d7d6b3          	srl	a3,a5,a3
     b60:	c514                	sw	a3,8(a0)
     b62:	4254                	lw	a3,4(a2)
     b64:	82ad                	srli	a3,a3,0xb
     b66:	8a9d                	andi	a3,a3,7
     b68:	9736                	add	a4,a4,a3
     b6a:	2318                	lbu	a4,0(a4)
     b6c:	00e7d7b3          	srl	a5,a5,a4
     b70:	c55c                	sw	a5,12(a0)
     b72:	4258                	lw	a4,4(a2)
     b74:	8339                	srli	a4,a4,0xe
     b76:	00377693          	andi	a3,a4,3
     b7a:	80818713          	addi	a4,gp,-2040 # 20000238 <ADCPrescTable>
     b7e:	9736                	add	a4,a4,a3
     b80:	2318                	lbu	a4,0(a4)
     b82:	02e7d7b3          	divu	a5,a5,a4
     b86:	c91c                	sw	a5,16(a0)
     b88:	8082                	ret
     b8a:	435c                	lw	a5,4(a4)
     b8c:	4358                	lw	a4,4(a4)
     b8e:	66c1                	lui	a3,0x10
     b90:	83c9                	srli	a5,a5,0x12
     b92:	8bbd                	andi	a5,a5,15
     b94:	8f75                	and	a4,a4,a3
     b96:	0789                	addi	a5,a5,2
     b98:	46c5                	li	a3,17
     b9a:	00d79363          	bne	a5,a3,ba0 <RCC_GetClocksFreq+0x8a>
     b9e:	47c9                	li	a5,18
     ba0:	ef01                	bnez	a4,bb8 <RCC_GetClocksFreq+0xa2>
     ba2:	40024737          	lui	a4,0x40024
     ba6:	80072703          	lw	a4,-2048(a4) # 40023800 <_eusrstack+0x2001e800>
     baa:	8b41                	andi	a4,a4,16
     bac:	cf09                	beqz	a4,bc6 <RCC_GetClocksFreq+0xb0>
     bae:	007a1737          	lui	a4,0x7a1
     bb2:	20070713          	addi	a4,a4,512 # 7a1200 <_data_lma+0x79cc3c>
     bb6:	a821                	j	bce <RCC_GetClocksFreq+0xb8>
     bb8:	40021737          	lui	a4,0x40021
     bbc:	4358                	lw	a4,4(a4)
     bbe:	00e71693          	slli	a3,a4,0xe
     bc2:	fe06d6e3          	bgez	a3,bae <RCC_GetClocksFreq+0x98>
     bc6:	003d1737          	lui	a4,0x3d1
     bca:	90070713          	addi	a4,a4,-1792 # 3d0900 <_data_lma+0x3cc33c>
     bce:	02e787b3          	mul	a5,a5,a4
     bd2:	b785                	j	b32 <RCC_GetClocksFreq+0x1c>

00000bd4 <RCC_APB2PeriphClockCmd>:
     bd4:	c599                	beqz	a1,be2 <RCC_APB2PeriphClockCmd+0xe>
     bd6:	40021737          	lui	a4,0x40021
     bda:	4f1c                	lw	a5,24(a4)
     bdc:	8d5d                	or	a0,a0,a5
     bde:	cf08                	sw	a0,24(a4)
     be0:	8082                	ret
     be2:	400217b7          	lui	a5,0x40021
     be6:	4f98                	lw	a4,24(a5)
     be8:	fff54513          	not	a0,a0
     bec:	8d79                	and	a0,a0,a4
     bee:	cf88                	sw	a0,24(a5)
     bf0:	8082                	ret

00000bf2 <RCC_APB1PeriphClockCmd>:
     bf2:	c599                	beqz	a1,c00 <RCC_APB1PeriphClockCmd+0xe>
     bf4:	40021737          	lui	a4,0x40021
     bf8:	4f5c                	lw	a5,28(a4)
     bfa:	8d5d                	or	a0,a0,a5
     bfc:	cf48                	sw	a0,28(a4)
     bfe:	8082                	ret
     c00:	400217b7          	lui	a5,0x40021
     c04:	4fd8                	lw	a4,28(a5)
     c06:	fff54513          	not	a0,a0
     c0a:	8d79                	and	a0,a0,a4
     c0c:	cfc8                	sw	a0,28(a5)
     c0e:	8082                	ret

00000c10 <TIM_TimeBaseInit>:
     c10:	211e                	lhu	a5,0(a0)
     c12:	40013737          	lui	a4,0x40013
     c16:	c0070713          	addi	a4,a4,-1024 # 40012c00 <_eusrstack+0x2000dc00>
     c1a:	07c2                	slli	a5,a5,0x10
     c1c:	83c1                	srli	a5,a5,0x10
     c1e:	02e50463          	beq	a0,a4,c46 <TIM_TimeBaseInit+0x36>
     c22:	40000737          	lui	a4,0x40000
     c26:	02e50063          	beq	a0,a4,c46 <TIM_TimeBaseInit+0x36>
     c2a:	40070713          	addi	a4,a4,1024 # 40000400 <_eusrstack+0x1fffb400>
     c2e:	00e50c63          	beq	a0,a4,c46 <TIM_TimeBaseInit+0x36>
     c32:	40001737          	lui	a4,0x40001
     c36:	80070693          	addi	a3,a4,-2048 # 40000800 <_eusrstack+0x1fffb800>
     c3a:	00d50663          	beq	a0,a3,c46 <TIM_TimeBaseInit+0x36>
     c3e:	c0070713          	addi	a4,a4,-1024
     c42:	00e51663          	bne	a0,a4,c4e <TIM_TimeBaseInit+0x3e>
     c46:	21ba                	lhu	a4,2(a1)
     c48:	f8f7f793          	andi	a5,a5,-113
     c4c:	8fd9                	or	a5,a5,a4
     c4e:	21fa                	lhu	a4,6(a1)
     c50:	cff7f793          	andi	a5,a5,-769
     c54:	07c2                	slli	a5,a5,0x10
     c56:	83c1                	srli	a5,a5,0x10
     c58:	8fd9                	or	a5,a5,a4
     c5a:	a11e                	sh	a5,0(a0)
     c5c:	21de                	lhu	a5,4(a1)
     c5e:	b55e                	sh	a5,44(a0)
     c60:	219e                	lhu	a5,0(a1)
     c62:	b51e                	sh	a5,40(a0)
     c64:	400137b7          	lui	a5,0x40013
     c68:	c0078793          	addi	a5,a5,-1024 # 40012c00 <_eusrstack+0x2000dc00>
     c6c:	00f51463          	bne	a0,a5,c74 <TIM_TimeBaseInit+0x64>
     c70:	259c                	lbu	a5,8(a1)
     c72:	b91e                	sh	a5,48(a0)
     c74:	4785                	li	a5,1
     c76:	a95e                	sh	a5,20(a0)
     c78:	8082                	ret

00000c7a <TIM_OC1Init>:
     c7a:	311e                	lhu	a5,32(a0)
     c7c:	2192                	lhu	a2,0(a1)
     c7e:	0025d803          	lhu	a6,2(a1)
     c82:	07c2                	slli	a5,a5,0x10
     c84:	83c1                	srli	a5,a5,0x10
     c86:	9bf9                	andi	a5,a5,-2
     c88:	07c2                	slli	a5,a5,0x10
     c8a:	83c1                	srli	a5,a5,0x10
     c8c:	b11e                	sh	a5,32(a0)
     c8e:	311e                	lhu	a5,32(a0)
     c90:	2156                	lhu	a3,4(a0)
     c92:	2d1a                	lhu	a4,24(a0)
     c94:	07c2                	slli	a5,a5,0x10
     c96:	83c1                	srli	a5,a5,0x10
     c98:	0742                	slli	a4,a4,0x10
     c9a:	8341                	srli	a4,a4,0x10
     c9c:	f8c77713          	andi	a4,a4,-116
     ca0:	8f51                	or	a4,a4,a2
     ca2:	2592                	lhu	a2,8(a1)
     ca4:	9bf5                	andi	a5,a5,-3
     ca6:	06c2                	slli	a3,a3,0x10
     ca8:	01066633          	or	a2,a2,a6
     cac:	8fd1                	or	a5,a5,a2
     cae:	40013637          	lui	a2,0x40013
     cb2:	c0060613          	addi	a2,a2,-1024 # 40012c00 <_eusrstack+0x2000dc00>
     cb6:	82c1                	srli	a3,a3,0x10
     cb8:	02c51063          	bne	a0,a2,cd8 <TIM_OC1Init+0x5e>
     cbc:	25b2                	lhu	a2,10(a1)
     cbe:	9bdd                	andi	a5,a5,-9
     cc0:	00e5d803          	lhu	a6,14(a1)
     cc4:	8fd1                	or	a5,a5,a2
     cc6:	21d2                	lhu	a2,4(a1)
     cc8:	9bed                	andi	a5,a5,-5
     cca:	cff6f693          	andi	a3,a3,-769
     cce:	8fd1                	or	a5,a5,a2
     cd0:	25d2                	lhu	a2,12(a1)
     cd2:	01066633          	or	a2,a2,a6
     cd6:	8ed1                	or	a3,a3,a2
     cd8:	a156                	sh	a3,4(a0)
     cda:	ad1a                	sh	a4,24(a0)
     cdc:	21fa                	lhu	a4,6(a1)
     cde:	b95a                	sh	a4,52(a0)
     ce0:	b11e                	sh	a5,32(a0)
     ce2:	8082                	ret

00000ce4 <TIM_Cmd>:
     ce4:	211e                	lhu	a5,0(a0)
     ce6:	c589                	beqz	a1,cf0 <TIM_Cmd+0xc>
     ce8:	0017e793          	ori	a5,a5,1
     cec:	a11e                	sh	a5,0(a0)
     cee:	8082                	ret
     cf0:	07c2                	slli	a5,a5,0x10
     cf2:	83c1                	srli	a5,a5,0x10
     cf4:	9bf9                	andi	a5,a5,-2
     cf6:	07c2                	slli	a5,a5,0x10
     cf8:	83c1                	srli	a5,a5,0x10
     cfa:	bfcd                	j	cec <TIM_Cmd+0x8>

00000cfc <TIM_ITConfig>:
     cfc:	255e                	lhu	a5,12(a0)
     cfe:	c601                	beqz	a2,d06 <TIM_ITConfig+0xa>
     d00:	8ddd                	or	a1,a1,a5
     d02:	a54e                	sh	a1,12(a0)
     d04:	8082                	ret
     d06:	fff5c593          	not	a1,a1
     d0a:	8dfd                	and	a1,a1,a5
     d0c:	bfdd                	j	d02 <TIM_ITConfig+0x6>

00000d0e <TIM_ARRPreloadConfig>:
     d0e:	211e                	lhu	a5,0(a0)
     d10:	c589                	beqz	a1,d1a <TIM_ARRPreloadConfig+0xc>
     d12:	0807e793          	ori	a5,a5,128
     d16:	a11e                	sh	a5,0(a0)
     d18:	8082                	ret
     d1a:	07c2                	slli	a5,a5,0x10
     d1c:	83c1                	srli	a5,a5,0x10
     d1e:	f7f7f793          	andi	a5,a5,-129
     d22:	07c2                	slli	a5,a5,0x10
     d24:	83c1                	srli	a5,a5,0x10
     d26:	bfc5                	j	d16 <TIM_ARRPreloadConfig+0x8>

00000d28 <TIM_OC1PreloadConfig>:
     d28:	2d1e                	lhu	a5,24(a0)
     d2a:	07c2                	slli	a5,a5,0x10
     d2c:	83c1                	srli	a5,a5,0x10
     d2e:	9bdd                	andi	a5,a5,-9
     d30:	8ddd                	or	a1,a1,a5
     d32:	ad0e                	sh	a1,24(a0)
     d34:	8082                	ret

00000d36 <TIM_SetCompare1>:
     d36:	b94e                	sh	a1,52(a0)
     d38:	8082                	ret

00000d3a <TIM_GetITStatus>:
     d3a:	291e                	lhu	a5,16(a0)
     d3c:	254a                	lhu	a0,12(a0)
     d3e:	8fed                	and	a5,a5,a1
     d40:	0542                	slli	a0,a0,0x10
     d42:	8141                	srli	a0,a0,0x10
     d44:	c789                	beqz	a5,d4e <TIM_GetITStatus+0x14>
     d46:	8d6d                	and	a0,a0,a1
     d48:	00a03533          	snez	a0,a0
     d4c:	8082                	ret
     d4e:	4501                	li	a0,0
     d50:	8082                	ret

00000d52 <TIM_ClearITPendingBit>:
     d52:	fff5c593          	not	a1,a1
     d56:	05c2                	slli	a1,a1,0x10
     d58:	81c1                	srli	a1,a1,0x10
     d5a:	a90e                	sh	a1,16(a0)
     d5c:	8082                	ret

00000d5e <USART_Init>:
     d5e:	bd2ff2ef          	jal	t0,130 <__riscv_save_0>
     d62:	2916                	lhu	a3,16(a0)
     d64:	77f5                	lui	a5,0xffffd
     d66:	17fd                	addi	a5,a5,-1
     d68:	8ff5                	and	a5,a5,a3
     d6a:	21f6                	lhu	a3,6(a1)
     d6c:	25da                	lhu	a4,12(a1)
     d6e:	7179                	addi	sp,sp,-48
     d70:	8fd5                	or	a5,a5,a3
     d72:	a91e                	sh	a5,16(a0)
     d74:	2556                	lhu	a3,12(a0)
     d76:	77fd                	lui	a5,0xfffff
     d78:	9f378793          	addi	a5,a5,-1549 # ffffe9f3 <_eusrstack+0xdfff99f3>
     d7c:	8ff5                	and	a5,a5,a3
     d7e:	21d6                	lhu	a3,4(a1)
     d80:	842a                	mv	s0,a0
     d82:	c62e                	sw	a1,12(sp)
     d84:	8fd5                	or	a5,a5,a3
     d86:	2596                	lhu	a3,8(a1)
     d88:	8fd5                	or	a5,a5,a3
     d8a:	25b6                	lhu	a3,10(a1)
     d8c:	8fd5                	or	a5,a5,a3
     d8e:	a55e                	sh	a5,12(a0)
     d90:	295e                	lhu	a5,20(a0)
     d92:	07c2                	slli	a5,a5,0x10
     d94:	83c1                	srli	a5,a5,0x10
     d96:	cff7f793          	andi	a5,a5,-769
     d9a:	8fd9                	or	a5,a5,a4
     d9c:	a95e                	sh	a5,20(a0)
     d9e:	0868                	addi	a0,sp,28
     da0:	3b9d                	jal	b16 <RCC_GetClocksFreq>
     da2:	400147b7          	lui	a5,0x40014
     da6:	80078793          	addi	a5,a5,-2048 # 40013800 <_eusrstack+0x2000e800>
     daa:	45b2                	lw	a1,12(sp)
     dac:	02f41e63          	bne	s0,a5,de8 <USART_Init+0x8a>
     db0:	57a2                	lw	a5,40(sp)
     db2:	4765                	li	a4,25
     db4:	02e787b3          	mul	a5,a5,a4
     db8:	4198                	lw	a4,0(a1)
     dba:	06400693          	li	a3,100
     dbe:	070a                	slli	a4,a4,0x2
     dc0:	02e7d7b3          	divu	a5,a5,a4
     dc4:	02d7d733          	divu	a4,a5,a3
     dc8:	02d7f7b3          	remu	a5,a5,a3
     dcc:	0712                	slli	a4,a4,0x4
     dce:	0792                	slli	a5,a5,0x4
     dd0:	03278793          	addi	a5,a5,50
     dd4:	02d7d7b3          	divu	a5,a5,a3
     dd8:	8bbd                	andi	a5,a5,15
     dda:	8fd9                	or	a5,a5,a4
     ddc:	07c2                	slli	a5,a5,0x10
     dde:	83c1                	srli	a5,a5,0x10
     de0:	a41e                	sh	a5,8(s0)
     de2:	6145                	addi	sp,sp,48
     de4:	b70ff06f          	j	154 <__riscv_restore_0>
     de8:	5792                	lw	a5,36(sp)
     dea:	b7e1                	j	db2 <USART_Init+0x54>

00000dec <USART_Cmd>:
     dec:	c591                	beqz	a1,df8 <USART_Cmd+0xc>
     dee:	255e                	lhu	a5,12(a0)
     df0:	6709                	lui	a4,0x2
     df2:	8fd9                	or	a5,a5,a4
     df4:	a55e                	sh	a5,12(a0)
     df6:	8082                	ret
     df8:	255a                	lhu	a4,12(a0)
     dfa:	77f9                	lui	a5,0xffffe
     dfc:	17fd                	addi	a5,a5,-1
     dfe:	8ff9                	and	a5,a5,a4
     e00:	bfd5                	j	df4 <USART_Cmd+0x8>

00000e02 <USART_ITConfig>:
     e02:	0ff5f713          	andi	a4,a1,255
     e06:	4785                	li	a5,1
     e08:	8315                	srli	a4,a4,0x5
     e0a:	00b795b3          	sll	a1,a5,a1
     e0e:	00f71963          	bne	a4,a5,e20 <USART_ITConfig+0x1e>
     e12:	00c50793          	addi	a5,a0,12
     e16:	4398                	lw	a4,0(a5)
     e18:	ce01                	beqz	a2,e30 <USART_ITConfig+0x2e>
     e1a:	8dd9                	or	a1,a1,a4
     e1c:	c38c                	sw	a1,0(a5)
     e1e:	8082                	ret
     e20:	4689                	li	a3,2
     e22:	01450793          	addi	a5,a0,20
     e26:	fed718e3          	bne	a4,a3,e16 <USART_ITConfig+0x14>
     e2a:	01050793          	addi	a5,a0,16
     e2e:	b7e5                	j	e16 <USART_ITConfig+0x14>
     e30:	fff5c593          	not	a1,a1
     e34:	8df9                	and	a1,a1,a4
     e36:	b7dd                	j	e1c <USART_ITConfig+0x1a>

00000e38 <USART_SendData>:
     e38:	1ff5f593          	andi	a1,a1,511
     e3c:	a14e                	sh	a1,4(a0)
     e3e:	8082                	ret

00000e40 <USART_ReceiveData>:
     e40:	214a                	lhu	a0,4(a0)
     e42:	1ff57513          	andi	a0,a0,511
     e46:	8082                	ret

00000e48 <USART_GetFlagStatus>:
     e48:	210a                	lhu	a0,0(a0)
     e4a:	8d6d                	and	a0,a0,a1
     e4c:	00a03533          	snez	a0,a0
     e50:	8082                	ret

00000e52 <USART_GetITStatus>:
     e52:	0ff5f713          	andi	a4,a1,255
     e56:	4685                	li	a3,1
     e58:	8315                	srli	a4,a4,0x5
     e5a:	00b697b3          	sll	a5,a3,a1
     e5e:	02d71163          	bne	a4,a3,e80 <USART_GetITStatus+0x2e>
     e62:	255a                	lhu	a4,12(a0)
     e64:	8ff9                	and	a5,a5,a4
     e66:	211a                	lhu	a4,0(a0)
     e68:	4501                	li	a0,0
     e6a:	0742                	slli	a4,a4,0x10
     e6c:	8341                	srli	a4,a4,0x10
     e6e:	cb81                	beqz	a5,e7e <USART_GetITStatus+0x2c>
     e70:	4505                	li	a0,1
     e72:	81a1                	srli	a1,a1,0x8
     e74:	00b515b3          	sll	a1,a0,a1
     e78:	8f6d                	and	a4,a4,a1
     e7a:	00e03533          	snez	a0,a4
     e7e:	8082                	ret
     e80:	4689                	li	a3,2
     e82:	00d71463          	bne	a4,a3,e8a <USART_GetITStatus+0x38>
     e86:	291a                	lhu	a4,16(a0)
     e88:	bff1                	j	e64 <USART_GetITStatus+0x12>
     e8a:	295a                	lhu	a4,20(a0)
     e8c:	bfe1                	j	e64 <USART_GetITStatus+0x12>

00000e8e <USART_ClearITPendingBit>:
     e8e:	81a1                	srli	a1,a1,0x8
     e90:	4785                	li	a5,1
     e92:	00b797b3          	sll	a5,a5,a1
     e96:	fff7c793          	not	a5,a5
     e9a:	07c2                	slli	a5,a5,0x10
     e9c:	83c1                	srli	a5,a5,0x10
     e9e:	a11e                	sh	a5,0(a0)
     ea0:	8082                	ret

00000ea2 <TIM3_PWM_Init>:
     ea2:	a8eff2ef          	jal	t0,130 <__riscv_save_0>
     ea6:	7139                	addi	sp,sp,-64
     ea8:	84aa                	mv	s1,a0
     eaa:	842e                	mv	s0,a1
     eac:	4509                	li	a0,2
     eae:	4585                	li	a1,1
     eb0:	c632                	sw	a2,12(sp)
     eb2:	3381                	jal	bf2 <RCC_APB1PeriphClockCmd>
     eb4:	4585                	li	a1,1
     eb6:	4515                	li	a0,5
     eb8:	3b31                	jal	bd4 <RCC_APB2PeriphClockCmd>
     eba:	47e1                	li	a5,24
     ebc:	d63e                	sw	a5,44(sp)
     ebe:	40011537          	lui	a0,0x40011
     ec2:	04000793          	li	a5,64
     ec6:	02f11223          	sh	a5,36(sp)
     eca:	104c                	addi	a1,sp,36
     ecc:	478d                	li	a5,3
     ece:	80050513          	addi	a0,a0,-2048 # 40010800 <_eusrstack+0x2000b800>
     ed2:	d43e                	sw	a5,40(sp)
     ed4:	34e9                	jal	99e <GPIO_Init>
     ed6:	84e0                	sh	s0,24(sp)
     ed8:	40000437          	lui	s0,0x40000
     edc:	082c                	addi	a1,sp,24
     ede:	40040513          	addi	a0,s0,1024 # 40000400 <_eusrstack+0x1fffb400>
     ee2:	86e4                	sh	s1,28(sp)
     ee4:	00011f23          	sh	zero,30(sp)
     ee8:	00011d23          	sh	zero,26(sp)
     eec:	3315                	jal	c10 <TIM_TimeBaseInit>
     eee:	4632                	lw	a2,12(sp)
     ef0:	67c1                	lui	a5,0x10
     ef2:	06078793          	addi	a5,a5,96 # 10060 <_data_lma+0xba9c>
     ef6:	180c                	addi	a1,sp,48
     ef8:	40040513          	addi	a0,s0,1024
     efc:	d83e                	sw	a5,48(sp)
     efe:	02c11b23          	sh	a2,54(sp)
     f02:	02011c23          	sh	zero,56(sp)
     f06:	3b95                	jal	c7a <TIM_OC1Init>
     f08:	40040513          	addi	a0,s0,1024
     f0c:	45a1                	li	a1,8
     f0e:	3d29                	jal	d28 <TIM_OC1PreloadConfig>
     f10:	40040513          	addi	a0,s0,1024
     f14:	4585                	li	a1,1
     f16:	3be5                	jal	d0e <TIM_ARRPreloadConfig>
     f18:	4585                	li	a1,1
     f1a:	40040513          	addi	a0,s0,1024
     f1e:	33d9                	jal	ce4 <TIM_Cmd>
     f20:	6121                	addi	sp,sp,64
     f22:	a32ff06f          	j	154 <__riscv_restore_0>

00000f26 <TIM4_PWM_Init>:
     f26:	a0aff2ef          	jal	t0,130 <__riscv_save_0>
     f2a:	7139                	addi	sp,sp,-64
     f2c:	84aa                	mv	s1,a0
     f2e:	842e                	mv	s0,a1
     f30:	4511                	li	a0,4
     f32:	4585                	li	a1,1
     f34:	c632                	sw	a2,12(sp)
     f36:	3975                	jal	bf2 <RCC_APB1PeriphClockCmd>
     f38:	4585                	li	a1,1
     f3a:	4525                	li	a0,9
     f3c:	3961                	jal	bd4 <RCC_APB2PeriphClockCmd>
     f3e:	47e1                	li	a5,24
     f40:	d63e                	sw	a5,44(sp)
     f42:	40011537          	lui	a0,0x40011
     f46:	04000793          	li	a5,64
     f4a:	02f11223          	sh	a5,36(sp)
     f4e:	104c                	addi	a1,sp,36
     f50:	478d                	li	a5,3
     f52:	c0050513          	addi	a0,a0,-1024 # 40010c00 <_eusrstack+0x2000bc00>
     f56:	d43e                	sw	a5,40(sp)
     f58:	3499                	jal	99e <GPIO_Init>
     f5a:	84e0                	sh	s0,24(sp)
     f5c:	40001437          	lui	s0,0x40001
     f60:	082c                	addi	a1,sp,24
     f62:	80040513          	addi	a0,s0,-2048 # 40000800 <_eusrstack+0x1fffb800>
     f66:	86e4                	sh	s1,28(sp)
     f68:	00011f23          	sh	zero,30(sp)
     f6c:	00011d23          	sh	zero,26(sp)
     f70:	3145                	jal	c10 <TIM_TimeBaseInit>
     f72:	4632                	lw	a2,12(sp)
     f74:	67c1                	lui	a5,0x10
     f76:	06078793          	addi	a5,a5,96 # 10060 <_data_lma+0xba9c>
     f7a:	180c                	addi	a1,sp,48
     f7c:	80040513          	addi	a0,s0,-2048
     f80:	d83e                	sw	a5,48(sp)
     f82:	02c11b23          	sh	a2,54(sp)
     f86:	02011c23          	sh	zero,56(sp)
     f8a:	39c5                	jal	c7a <TIM_OC1Init>
     f8c:	80040513          	addi	a0,s0,-2048
     f90:	45a1                	li	a1,8
     f92:	3b59                	jal	d28 <TIM_OC1PreloadConfig>
     f94:	80040513          	addi	a0,s0,-2048
     f98:	4585                	li	a1,1
     f9a:	3b95                	jal	d0e <TIM_ARRPreloadConfig>
     f9c:	4585                	li	a1,1
     f9e:	80040513          	addi	a0,s0,-2048
     fa2:	3389                	jal	ce4 <TIM_Cmd>
     fa4:	6121                	addi	sp,sp,64
     fa6:	9aeff06f          	j	154 <__riscv_restore_0>

00000faa <OLED_I2C_Init>:
     faa:	986ff2ef          	jal	t0,130 <__riscv_save_0>
     fae:	1141                	addi	sp,sp,-16
     fb0:	4585                	li	a1,1
     fb2:	4521                	li	a0,8
     fb4:	3105                	jal	bd4 <RCC_APB2PeriphClockCmd>
     fb6:	47c1                	li	a5,16
     fb8:	c63e                	sw	a5,12(sp)
     fba:	478d                	li	a5,3
     fbc:	40011437          	lui	s0,0x40011
     fc0:	c43e                	sw	a5,8(sp)
     fc2:	6785                	lui	a5,0x1
     fc4:	c0078793          	addi	a5,a5,-1024 # c00 <RCC_APB1PeriphClockCmd+0xe>
     fc8:	004c                	addi	a1,sp,4
     fca:	c0040513          	addi	a0,s0,-1024 # 40010c00 <_eusrstack+0x2000bc00>
     fce:	827c                	sh	a5,4(sp)
     fd0:	9cfff0ef          	jal	ra,99e <GPIO_Init>
     fd4:	6585                	lui	a1,0x1
     fd6:	c0040513          	addi	a0,s0,-1024
     fda:	4605                	li	a2,1
     fdc:	80058593          	addi	a1,a1,-2048 # 800 <__stack_size>
     fe0:	3c45                	jal	a90 <GPIO_WriteBit>
     fe2:	4605                	li	a2,1
     fe4:	40000593          	li	a1,1024
     fe8:	c0040513          	addi	a0,s0,-1024
     fec:	3455                	jal	a90 <GPIO_WriteBit>
     fee:	0141                	addi	sp,sp,16
     ff0:	964ff06f          	j	154 <__riscv_restore_0>

00000ff4 <OLED_I2C_Start>:
     ff4:	93cff2ef          	jal	t0,130 <__riscv_save_0>
     ff8:	40011437          	lui	s0,0x40011
     ffc:	c0040513          	addi	a0,s0,-1024 # 40010c00 <_eusrstack+0x2000bc00>
    1000:	4605                	li	a2,1
    1002:	40000593          	li	a1,1024
    1006:	3469                	jal	a90 <GPIO_WriteBit>
    1008:	6485                	lui	s1,0x1
    100a:	80048593          	addi	a1,s1,-2048 # 800 <__stack_size>
    100e:	c0040513          	addi	a0,s0,-1024
    1012:	4605                	li	a2,1
    1014:	3cb5                	jal	a90 <GPIO_WriteBit>
    1016:	c0040513          	addi	a0,s0,-1024
    101a:	4601                	li	a2,0
    101c:	40000593          	li	a1,1024
    1020:	3c85                	jal	a90 <GPIO_WriteBit>
    1022:	4601                	li	a2,0
    1024:	80048593          	addi	a1,s1,-2048
    1028:	c0040513          	addi	a0,s0,-1024
    102c:	3495                	jal	a90 <GPIO_WriteBit>
    102e:	926ff06f          	j	154 <__riscv_restore_0>

00001032 <OLED_I2C_Stop>:
    1032:	8feff2ef          	jal	t0,130 <__riscv_save_0>
    1036:	40011437          	lui	s0,0x40011
    103a:	c0040513          	addi	a0,s0,-1024 # 40010c00 <_eusrstack+0x2000bc00>
    103e:	4601                	li	a2,0
    1040:	40000593          	li	a1,1024
    1044:	a4dff0ef          	jal	ra,a90 <GPIO_WriteBit>
    1048:	6585                	lui	a1,0x1
    104a:	c0040513          	addi	a0,s0,-1024
    104e:	4605                	li	a2,1
    1050:	80058593          	addi	a1,a1,-2048 # 800 <__stack_size>
    1054:	a3dff0ef          	jal	ra,a90 <GPIO_WriteBit>
    1058:	4605                	li	a2,1
    105a:	40000593          	li	a1,1024
    105e:	c0040513          	addi	a0,s0,-1024
    1062:	a2fff0ef          	jal	ra,a90 <GPIO_WriteBit>
    1066:	8eeff06f          	j	154 <__riscv_restore_0>

0000106a <OLED_I2C_SendByte>:
    106a:	89eff2ef          	jal	t0,108 <__riscv_save_10>
    106e:	400114b7          	lui	s1,0x40011
    1072:	6905                	lui	s2,0x1
    1074:	8b2a                	mv	s6,a0
    1076:	4401                	li	s0,0
    1078:	08000b93          	li	s7,128
    107c:	c0048993          	addi	s3,s1,-1024 # 40010c00 <_eusrstack+0x2000bc00>
    1080:	80090a13          	addi	s4,s2,-2048 # 800 <__stack_size>
    1084:	4aa1                	li	s5,8
    1086:	408bd633          	sra	a2,s7,s0
    108a:	01667633          	and	a2,a2,s6
    108e:	00c03633          	snez	a2,a2
    1092:	40000593          	li	a1,1024
    1096:	854e                	mv	a0,s3
    1098:	9f9ff0ef          	jal	ra,a90 <GPIO_WriteBit>
    109c:	4509                	li	a0,2
    109e:	742000ef          	jal	ra,17e0 <Delay_Us>
    10a2:	4605                	li	a2,1
    10a4:	85d2                	mv	a1,s4
    10a6:	854e                	mv	a0,s3
    10a8:	9e9ff0ef          	jal	ra,a90 <GPIO_WriteBit>
    10ac:	4509                	li	a0,2
    10ae:	732000ef          	jal	ra,17e0 <Delay_Us>
    10b2:	4601                	li	a2,0
    10b4:	85d2                	mv	a1,s4
    10b6:	854e                	mv	a0,s3
    10b8:	9d9ff0ef          	jal	ra,a90 <GPIO_WriteBit>
    10bc:	4509                	li	a0,2
    10be:	0405                	addi	s0,s0,1
    10c0:	720000ef          	jal	ra,17e0 <Delay_Us>
    10c4:	fd5411e3          	bne	s0,s5,1086 <OLED_I2C_SendByte+0x1c>
    10c8:	80090593          	addi	a1,s2,-2048
    10cc:	4605                	li	a2,1
    10ce:	c0048513          	addi	a0,s1,-1024
    10d2:	9bfff0ef          	jal	ra,a90 <GPIO_WriteBit>
    10d6:	4509                	li	a0,2
    10d8:	708000ef          	jal	ra,17e0 <Delay_Us>
    10dc:	4601                	li	a2,0
    10de:	80090593          	addi	a1,s2,-2048
    10e2:	c0048513          	addi	a0,s1,-1024
    10e6:	9abff0ef          	jal	ra,a90 <GPIO_WriteBit>
    10ea:	4509                	li	a0,2
    10ec:	6f4000ef          	jal	ra,17e0 <Delay_Us>
    10f0:	850ff06f          	j	140 <__riscv_restore_10>

000010f4 <OLED_WriteCommand>:
    10f4:	83cff2ef          	jal	t0,130 <__riscv_save_0>
    10f8:	842a                	mv	s0,a0
    10fa:	3ded                	jal	ff4 <OLED_I2C_Start>
    10fc:	07800513          	li	a0,120
    1100:	37ad                	jal	106a <OLED_I2C_SendByte>
    1102:	4501                	li	a0,0
    1104:	379d                	jal	106a <OLED_I2C_SendByte>
    1106:	8522                	mv	a0,s0
    1108:	378d                	jal	106a <OLED_I2C_SendByte>
    110a:	3725                	jal	1032 <OLED_I2C_Stop>
    110c:	848ff06f          	j	154 <__riscv_restore_0>

00001110 <OLED_WriteData>:
    1110:	820ff2ef          	jal	t0,130 <__riscv_save_0>
    1114:	842a                	mv	s0,a0
    1116:	3df9                	jal	ff4 <OLED_I2C_Start>
    1118:	07800513          	li	a0,120
    111c:	37b9                	jal	106a <OLED_I2C_SendByte>
    111e:	04000513          	li	a0,64
    1122:	37a1                	jal	106a <OLED_I2C_SendByte>
    1124:	8522                	mv	a0,s0
    1126:	3791                	jal	106a <OLED_I2C_SendByte>
    1128:	3729                	jal	1032 <OLED_I2C_Stop>
    112a:	82aff06f          	j	154 <__riscv_restore_0>

0000112e <OLED_SetCursor>:
    112e:	802ff2ef          	jal	t0,130 <__riscv_save_0>
    1132:	0b056513          	ori	a0,a0,176
    1136:	842e                	mv	s0,a1
    1138:	3f75                	jal	10f4 <OLED_WriteCommand>
    113a:	00445513          	srli	a0,s0,0x4
    113e:	01056513          	ori	a0,a0,16
    1142:	3f4d                	jal	10f4 <OLED_WriteCommand>
    1144:	00f47513          	andi	a0,s0,15
    1148:	3775                	jal	10f4 <OLED_WriteCommand>
    114a:	80aff06f          	j	154 <__riscv_restore_0>

0000114e <OLED_Clear>:
    114e:	fe3fe2ef          	jal	t0,130 <__riscv_save_0>
    1152:	4401                	li	s0,0
    1154:	4921                	li	s2,8
    1156:	4581                	li	a1,0
    1158:	8522                	mv	a0,s0
    115a:	3fd1                	jal	112e <OLED_SetCursor>
    115c:	08000493          	li	s1,128
    1160:	4501                	li	a0,0
    1162:	14fd                	addi	s1,s1,-1
    1164:	3775                	jal	1110 <OLED_WriteData>
    1166:	fced                	bnez	s1,1160 <OLED_Clear+0x12>
    1168:	0405                	addi	s0,s0,1
    116a:	0ff47413          	andi	s0,s0,255
    116e:	ff2414e3          	bne	s0,s2,1156 <OLED_Clear+0x8>
    1172:	fe3fe06f          	j	154 <__riscv_restore_0>

00001176 <OLED_ShowChar>:
    1176:	fa1fe2ef          	jal	t0,116 <__riscv_save_4>
    117a:	07f50493          	addi	s1,a0,127
    117e:	01f58993          	addi	s3,a1,31
    1182:	0486                	slli	s1,s1,0x1
    1184:	098e                	slli	s3,s3,0x3
    1186:	8932                	mv	s2,a2
    1188:	6411                	lui	s0,0x4
    118a:	0ff4f493          	andi	s1,s1,255
    118e:	0ff9f993          	andi	s3,s3,255
    1192:	e1440a93          	addi	s5,s0,-492 # 3e14 <OLED_F8x16>
    1196:	85ce                	mv	a1,s3
    1198:	8526                	mv	a0,s1
    119a:	0912                	slli	s2,s2,0x4
    119c:	3f49                	jal	112e <OLED_SetCursor>
    119e:	9aca                	add	s5,s5,s2
    11a0:	4a21                	li	s4,8
    11a2:	e1440413          	addi	s0,s0,-492
    11a6:	e00ac503          	lbu	a0,-512(s5)
    11aa:	1a7d                	addi	s4,s4,-1
    11ac:	0ffa7a13          	andi	s4,s4,255
    11b0:	3785                	jal	1110 <OLED_WriteData>
    11b2:	0a85                	addi	s5,s5,1
    11b4:	fe0a19e3          	bnez	s4,11a6 <OLED_ShowChar+0x30>
    11b8:	00148513          	addi	a0,s1,1
    11bc:	85ce                	mv	a1,s3
    11be:	0ff57513          	andi	a0,a0,255
    11c2:	e0090913          	addi	s2,s2,-512
    11c6:	37a5                	jal	112e <OLED_SetCursor>
    11c8:	944a                	add	s0,s0,s2
    11ca:	44a1                	li	s1,8
    11cc:	2408                	lbu	a0,8(s0)
    11ce:	14fd                	addi	s1,s1,-1
    11d0:	0ff4f493          	andi	s1,s1,255
    11d4:	3f35                	jal	1110 <OLED_WriteData>
    11d6:	0405                	addi	s0,s0,1
    11d8:	f8f5                	bnez	s1,11cc <OLED_ShowChar+0x56>
    11da:	f71fe06f          	j	14a <__riscv_restore_4>

000011de <OLED_ShowString>:
    11de:	f39fe2ef          	jal	t0,116 <__riscv_save_4>
    11e2:	892a                	mv	s2,a0
    11e4:	89ae                	mv	s3,a1
    11e6:	84b2                	mv	s1,a2
    11e8:	4401                	li	s0,0
    11ea:	008487b3          	add	a5,s1,s0
    11ee:	00078603          	lb	a2,0(a5)
    11f2:	e219                	bnez	a2,11f8 <OLED_ShowString+0x1a>
    11f4:	f57fe06f          	j	14a <__riscv_restore_4>
    11f8:	013405b3          	add	a1,s0,s3
    11fc:	0ff5f593          	andi	a1,a1,255
    1200:	854a                	mv	a0,s2
    1202:	0405                	addi	s0,s0,1
    1204:	3f8d                	jal	1176 <OLED_ShowChar>
    1206:	0ff47413          	andi	s0,s0,255
    120a:	b7c5                	j	11ea <OLED_ShowString+0xc>

0000120c <OLED_ShowNum>:
    120c:	f0bfe2ef          	jal	t0,116 <__riscv_save_4>
    1210:	892a                	mv	s2,a0
    1212:	89b2                	mv	s3,a2
    1214:	00b68a33          	add	s4,a3,a1
    1218:	5afd                	li	s5,-1
    121a:	44a9                	li	s1,10
    121c:	e299                	bnez	a3,1222 <OLED_ShowNum+0x16>
    121e:	f2dfe06f          	j	14a <__riscv_restore_4>
    1222:	40da05b3          	sub	a1,s4,a3
    1226:	16fd                	addi	a3,a3,-1
    1228:	0ff5f593          	andi	a1,a1,255
    122c:	4605                	li	a2,1
    122e:	8436                	mv	s0,a3
    1230:	16fd                	addi	a3,a3,-1
    1232:	01569c63          	bne	a3,s5,124a <OLED_ShowNum+0x3e>
    1236:	02c9d633          	divu	a2,s3,a2
    123a:	854a                	mv	a0,s2
    123c:	02967633          	remu	a2,a2,s1
    1240:	03060613          	addi	a2,a2,48
    1244:	3f0d                	jal	1176 <OLED_ShowChar>
    1246:	86a2                	mv	a3,s0
    1248:	bfd1                	j	121c <OLED_ShowNum+0x10>
    124a:	02960633          	mul	a2,a2,s1
    124e:	b7cd                	j	1230 <OLED_ShowNum+0x24>

00001250 <OLED_Init>:
    1250:	ee1fe2ef          	jal	t0,130 <__riscv_save_0>
    1254:	3b99                	jal	faa <OLED_I2C_Init>
    1256:	0ae00513          	li	a0,174
    125a:	3d69                	jal	10f4 <OLED_WriteCommand>
    125c:	0d500513          	li	a0,213
    1260:	3d51                	jal	10f4 <OLED_WriteCommand>
    1262:	08000513          	li	a0,128
    1266:	3579                	jal	10f4 <OLED_WriteCommand>
    1268:	0a800513          	li	a0,168
    126c:	3561                	jal	10f4 <OLED_WriteCommand>
    126e:	03f00513          	li	a0,63
    1272:	3549                	jal	10f4 <OLED_WriteCommand>
    1274:	0d300513          	li	a0,211
    1278:	3db5                	jal	10f4 <OLED_WriteCommand>
    127a:	4501                	li	a0,0
    127c:	3da5                	jal	10f4 <OLED_WriteCommand>
    127e:	04000513          	li	a0,64
    1282:	3d8d                	jal	10f4 <OLED_WriteCommand>
    1284:	0a100513          	li	a0,161
    1288:	35b5                	jal	10f4 <OLED_WriteCommand>
    128a:	0c800513          	li	a0,200
    128e:	359d                	jal	10f4 <OLED_WriteCommand>
    1290:	0da00513          	li	a0,218
    1294:	3585                	jal	10f4 <OLED_WriteCommand>
    1296:	4549                	li	a0,18
    1298:	3db1                	jal	10f4 <OLED_WriteCommand>
    129a:	08100513          	li	a0,129
    129e:	3d99                	jal	10f4 <OLED_WriteCommand>
    12a0:	0cf00513          	li	a0,207
    12a4:	3d81                	jal	10f4 <OLED_WriteCommand>
    12a6:	0d900513          	li	a0,217
    12aa:	35a9                	jal	10f4 <OLED_WriteCommand>
    12ac:	0f100513          	li	a0,241
    12b0:	3591                	jal	10f4 <OLED_WriteCommand>
    12b2:	0db00513          	li	a0,219
    12b6:	3d3d                	jal	10f4 <OLED_WriteCommand>
    12b8:	03000513          	li	a0,48
    12bc:	3d25                	jal	10f4 <OLED_WriteCommand>
    12be:	0a400513          	li	a0,164
    12c2:	3d0d                	jal	10f4 <OLED_WriteCommand>
    12c4:	0a600513          	li	a0,166
    12c8:	3535                	jal	10f4 <OLED_WriteCommand>
    12ca:	08d00513          	li	a0,141
    12ce:	351d                	jal	10f4 <OLED_WriteCommand>
    12d0:	4551                	li	a0,20
    12d2:	350d                	jal	10f4 <OLED_WriteCommand>
    12d4:	0af00513          	li	a0,175
    12d8:	3d31                	jal	10f4 <OLED_WriteCommand>
    12da:	3d95                	jal	114e <OLED_Clear>
    12dc:	e79fe06f          	j	154 <__riscv_restore_0>

000012e0 <ModBus_Init>:
    12e0:	e51fe2ef          	jal	t0,130 <__riscv_save_0>
    12e4:	6511                	lui	a0,0x4
    12e6:	7179                	addi	sp,sp,-48
    12e8:	4585                	li	a1,1
    12ea:	0511                	addi	a0,a0,4
    12ec:	8e9ff0ef          	jal	ra,bd4 <RCC_APB2PeriphClockCmd>
    12f0:	20000793          	li	a5,512
    12f4:	82fc                	sh	a5,20(sp)
    12f6:	40011437          	lui	s0,0x40011
    12fa:	478d                	li	a5,3
    12fc:	cc3e                	sw	a5,24(sp)
    12fe:	084c                	addi	a1,sp,20
    1300:	47e1                	li	a5,24
    1302:	80040513          	addi	a0,s0,-2048 # 40010800 <_eusrstack+0x2000b800>
    1306:	ce3e                	sw	a5,28(sp)
    1308:	e96ff0ef          	jal	ra,99e <GPIO_Init>
    130c:	40000793          	li	a5,1024
    1310:	82fc                	sh	a5,20(sp)
    1312:	084c                	addi	a1,sp,20
    1314:	4791                	li	a5,4
    1316:	80040513          	addi	a0,s0,-2048
    131a:	ce3e                	sw	a5,28(sp)
    131c:	e82ff0ef          	jal	ra,99e <GPIO_Init>
    1320:	6789                	lui	a5,0x2
    1322:	58078793          	addi	a5,a5,1408 # 2580 <__gedf2+0x50>
    1326:	40014437          	lui	s0,0x40014
    132a:	d03e                	sw	a5,32(sp)
    132c:	000c07b7          	lui	a5,0xc0
    1330:	40078793          	addi	a5,a5,1024 # c0400 <_data_lma+0xbbe3c>
    1334:	100c                	addi	a1,sp,32
    1336:	80040513          	addi	a0,s0,-2048 # 40013800 <_eusrstack+0x2000e800>
    133a:	d43e                	sw	a5,40(sp)
    133c:	d202                	sw	zero,36(sp)
    133e:	02011623          	sh	zero,44(sp)
    1342:	a1dff0ef          	jal	ra,d5e <USART_Init>
    1346:	4605                	li	a2,1
    1348:	52500593          	li	a1,1317
    134c:	80040513          	addi	a0,s0,-2048
    1350:	ab3ff0ef          	jal	ra,e02 <USART_ITConfig>
    1354:	13500793          	li	a5,309
    1358:	867c                	sh	a5,12(sp)
    135a:	4785                	li	a5,1
    135c:	875c                	sb	a5,14(sp)
    135e:	0068                	addi	a0,sp,12
    1360:	4785                	li	a5,1
    1362:	c83e                	sw	a5,16(sp)
    1364:	f4cff0ef          	jal	ra,ab0 <NVIC_Init>
    1368:	80040513          	addi	a0,s0,-2048
    136c:	4585                	li	a1,1
    136e:	a7fff0ef          	jal	ra,dec <USART_Cmd>
    1372:	4585                	li	a1,1
    1374:	4505                	li	a0,1
    1376:	87dff0ef          	jal	ra,bf2 <RCC_APB1PeriphClockCmd>
    137a:	04700793          	li	a5,71
    137e:	d03e                	sw	a5,32(sp)
    1380:	100c                	addi	a1,sp,32
    1382:	3e700793          	li	a5,999
    1386:	40000537          	lui	a0,0x40000
    138a:	d23e                	sw	a5,36(sp)
    138c:	885ff0ef          	jal	ra,c10 <TIM_TimeBaseInit>
    1390:	4605                	li	a2,1
    1392:	4585                	li	a1,1
    1394:	40000537          	lui	a0,0x40000
    1398:	965ff0ef          	jal	ra,cfc <TIM_ITConfig>
    139c:	e000e7b7          	lui	a5,0xe000e
    13a0:	6705                	lui	a4,0x1
    13a2:	10e7a223          	sw	a4,260(a5) # e000e104 <_eusrstack+0xc0009104>
    13a6:	4585                	li	a1,1
    13a8:	40000537          	lui	a0,0x40000
    13ac:	939ff0ef          	jal	ra,ce4 <TIM_Cmd>
    13b0:	12200613          	li	a2,290
    13b4:	4581                	li	a1,0
    13b6:	83418513          	addi	a0,gp,-1996 # 20000264 <mb_data>
    13ba:	da7fe0ef          	jal	ra,160 <memset>
    13be:	6145                	addi	sp,sp,48
    13c0:	d95fe06f          	j	154 <__riscv_restore_0>

000013c4 <ModBus_CRC16>:
    13c4:	67c1                	lui	a5,0x10
    13c6:	7669                	lui	a2,0xffffa
    13c8:	4681                	li	a3,0
    13ca:	17fd                	addi	a5,a5,-1
    13cc:	0605                	addi	a2,a2,1
    13ce:	01069713          	slli	a4,a3,0x10
    13d2:	8341                	srli	a4,a4,0x10
    13d4:	00b76463          	bltu	a4,a1,13dc <ModBus_CRC16+0x18>
    13d8:	853e                	mv	a0,a5
    13da:	8082                	ret
    13dc:	00d50733          	add	a4,a0,a3
    13e0:	2318                	lbu	a4,0(a4)
    13e2:	8fb9                	xor	a5,a5,a4
    13e4:	4721                	li	a4,8
    13e6:	0017f813          	andi	a6,a5,1
    13ea:	8385                	srli	a5,a5,0x1
    13ec:	00080563          	beqz	a6,13f6 <ModBus_CRC16+0x32>
    13f0:	8fb1                	xor	a5,a5,a2
    13f2:	07c2                	slli	a5,a5,0x10
    13f4:	83c1                	srli	a5,a5,0x10
    13f6:	177d                	addi	a4,a4,-1
    13f8:	0ff77713          	andi	a4,a4,255
    13fc:	f76d                	bnez	a4,13e6 <ModBus_CRC16+0x22>
    13fe:	0685                	addi	a3,a3,1
    1400:	b7f9                	j	13ce <ModBus_CRC16+0xa>

00001402 <ModBus_SendFrame>:
    1402:	d2ffe2ef          	jal	t0,130 <__riscv_save_0>
    1406:	20000437          	lui	s0,0x20000
    140a:	40014937          	lui	s2,0x40014
    140e:	4481                	li	s1,0
    1410:	02040413          	addi	s0,s0,32 # 20000020 <mb_frame>
    1414:	80090913          	addi	s2,s2,-2048 # 40013800 <_eusrstack+0x2000e800>
    1418:	20245783          	lhu	a5,514(s0)
    141c:	00f4ed63          	bltu	s1,a5,1436 <ModBus_SendFrame+0x34>
    1420:	10000613          	li	a2,256
    1424:	4581                	li	a1,0
    1426:	10240513          	addi	a0,s0,258
    142a:	20041123          	sh	zero,514(s0)
    142e:	d33fe0ef          	jal	ra,160 <memset>
    1432:	d23fe06f          	j	154 <__riscv_restore_0>
    1436:	08000593          	li	a1,128
    143a:	854a                	mv	a0,s2
    143c:	a0dff0ef          	jal	ra,e48 <USART_GetFlagStatus>
    1440:	d97d                	beqz	a0,1436 <ModBus_SendFrame+0x34>
    1442:	009407b3          	add	a5,s0,s1
    1446:	1027c583          	lbu	a1,258(a5) # 10102 <_data_lma+0xbb3e>
    144a:	0485                	addi	s1,s1,1
    144c:	854a                	mv	a0,s2
    144e:	04c2                	slli	s1,s1,0x10
    1450:	9e9ff0ef          	jal	ra,e38 <USART_SendData>
    1454:	80c1                	srli	s1,s1,0x10
    1456:	b7c9                	j	1418 <ModBus_SendFrame+0x16>

00001458 <ModBus_ProcessFrame>:
    1458:	cd9fe2ef          	jal	t0,130 <__riscv_save_0>
    145c:	20000937          	lui	s2,0x20000
    1460:	02090793          	addi	a5,s2,32 # 20000020 <mb_frame>
    1464:	1007d483          	lhu	s1,256(a5)
    1468:	478d                	li	a5,3
    146a:	02090413          	addi	s0,s2,32
    146e:	1097f763          	bgeu	a5,s1,157c <ModBus_ProcessFrame+0x124>
    1472:	ffe48593          	addi	a1,s1,-2
    1476:	05c2                	slli	a1,a1,0x10
    1478:	81c1                	srli	a1,a1,0x10
    147a:	02090513          	addi	a0,s2,32
    147e:	3799                	jal	13c4 <ModBus_CRC16>
    1480:	94a2                	add	s1,s1,s0
    1482:	fff4c783          	lbu	a5,-1(s1)
    1486:	ffe4c703          	lbu	a4,-2(s1)
    148a:	07a2                	slli	a5,a5,0x8
    148c:	8fd9                	or	a5,a5,a4
    148e:	0ea79763          	bne	a5,a0,157c <ModBus_ProcessFrame+0x124>
    1492:	201c                	lbu	a5,0(s0)
    1494:	20444683          	lbu	a3,516(s0)
    1498:	00d78663          	beq	a5,a3,14a4 <ModBus_ProcessFrame+0x4c>
    149c:	0ff00713          	li	a4,255
    14a0:	0ce79e63          	bne	a5,a4,157c <ModBus_ProcessFrame+0x124>
    14a4:	3004                	lbu	s1,1(s0)
    14a6:	478d                	li	a5,3
    14a8:	02f48e63          	beq	s1,a5,14e4 <ModBus_ProcessFrame+0x8c>
    14ac:	4799                	li	a5,6
    14ae:	0ef48263          	beq	s1,a5,1592 <ModBus_ProcessFrame+0x13a>
    14b2:	4785                	li	a5,1
    14b4:	10f40223          	sb	a5,260(s0)
    14b8:	f804e493          	ori	s1,s1,-128
    14bc:	478d                	li	a5,3
    14be:	458d                	li	a1,3
    14c0:	10240513          	addi	a0,s0,258
    14c4:	20f41123          	sh	a5,514(s0)
    14c8:	10d40123          	sb	a3,258(s0)
    14cc:	109401a3          	sb	s1,259(s0)
    14d0:	3dd5                	jal	13c4 <ModBus_CRC16>
    14d2:	10a402a3          	sb	a0,261(s0)
    14d6:	4795                	li	a5,5
    14d8:	8121                	srli	a0,a0,0x8
    14da:	20f41123          	sh	a5,514(s0)
    14de:	10a40323          	sb	a0,262(s0)
    14e2:	a861                	j	157a <ModBus_ProcessFrame+0x122>
    14e4:	2038                	lbu	a4,2(s0)
    14e6:	303c                	lbu	a5,3(s0)
    14e8:	3050                	lbu	a2,5(s0)
    14ea:	0722                	slli	a4,a4,0x8
    14ec:	8f5d                	or	a4,a4,a5
    14ee:	205c                	lbu	a5,4(s0)
    14f0:	07a2                	slli	a5,a5,0x8
    14f2:	8fd1                	or	a5,a5,a2
    14f4:	07c2                	slli	a5,a5,0x10
    14f6:	87c1                	srai	a5,a5,0x10
    14f8:	01079593          	slli	a1,a5,0x10
    14fc:	81c1                	srli	a1,a1,0x10
    14fe:	00b70533          	add	a0,a4,a1
    1502:	04000613          	li	a2,64
    1506:	0ca64263          	blt	a2,a0,15ca <ModBus_ProcessFrame+0x172>
    150a:	c1e1                	beqz	a1,15ca <ModBus_ProcessFrame+0x172>
    150c:	0786                	slli	a5,a5,0x1
    150e:	10d40123          	sb	a3,258(s0)
    1512:	83418693          	addi	a3,gp,-1996 # 20000264 <mb_data>
    1516:	0ff7f793          	andi	a5,a5,255
    151a:	0706                	slli	a4,a4,0x1
    151c:	9736                	add	a4,a4,a3
    151e:	109401a3          	sb	s1,259(s0)
    1522:	10f40223          	sb	a5,260(s0)
    1526:	8622                	mv	a2,s0
    1528:	4681                	li	a3,0
    152a:	332a                	lhu	a0,34(a4)
    152c:	0685                	addi	a3,a3,1
    152e:	06c2                	slli	a3,a3,0x10
    1530:	00855813          	srli	a6,a0,0x8
    1534:	110602a3          	sb	a6,261(a2) # ffffa105 <_eusrstack+0xdfff5105>
    1538:	10a60323          	sb	a0,262(a2)
    153c:	82c1                	srli	a3,a3,0x10
    153e:	0709                	addi	a4,a4,2
    1540:	0609                	addi	a2,a2,2
    1542:	fed594e3          	bne	a1,a3,152a <ModBus_ProcessFrame+0xd2>
    1546:	078d                	addi	a5,a5,3
    1548:	0ff7f793          	andi	a5,a5,255
    154c:	20f41123          	sh	a5,514(s0)
    1550:	20245483          	lhu	s1,514(s0)
    1554:	10240513          	addi	a0,s0,258
    1558:	85a6                	mv	a1,s1
    155a:	35ad                	jal	13c4 <ModBus_CRC16>
    155c:	009407b3          	add	a5,s0,s1
    1560:	10a78123          	sb	a0,258(a5)
    1564:	00248793          	addi	a5,s1,2
    1568:	0485                	addi	s1,s1,1
    156a:	04c2                	slli	s1,s1,0x10
    156c:	80c1                	srli	s1,s1,0x10
    156e:	94a2                	add	s1,s1,s0
    1570:	8121                	srli	a0,a0,0x8
    1572:	20f41123          	sh	a5,514(s0)
    1576:	10a48123          	sb	a0,258(s1)
    157a:	3561                	jal	1402 <ModBus_SendFrame>
    157c:	10000613          	li	a2,256
    1580:	4581                	li	a1,0
    1582:	02090513          	addi	a0,s2,32
    1586:	10041023          	sh	zero,256(s0)
    158a:	bd7fe0ef          	jal	ra,160 <memset>
    158e:	bc7fe06f          	j	154 <__riscv_restore_0>
    1592:	203c                	lbu	a5,2(s0)
    1594:	3038                	lbu	a4,3(s0)
    1596:	07a2                	slli	a5,a5,0x8
    1598:	8fd9                	or	a5,a5,a4
    159a:	03f00713          	li	a4,63
    159e:	02f76663          	bltu	a4,a5,15ca <ModBus_ProcessFrame+0x172>
    15a2:	07c1                	addi	a5,a5,16
    15a4:	83418713          	addi	a4,gp,-1996 # 20000264 <mb_data>
    15a8:	0786                	slli	a5,a5,0x1
    15aa:	97ba                	add	a5,a5,a4
    15ac:	2058                	lbu	a4,4(s0)
    15ae:	3054                	lbu	a3,5(s0)
    15b0:	4619                	li	a2,6
    15b2:	0722                	slli	a4,a4,0x8
    15b4:	8f55                	or	a4,a4,a3
    15b6:	02090593          	addi	a1,s2,32
    15ba:	10240513          	addi	a0,s0,258
    15be:	a3ba                	sh	a4,2(a5)
    15c0:	6f8020ef          	jal	ra,3cb8 <memcpy>
    15c4:	20941123          	sh	s1,514(s0)
    15c8:	b761                	j	1550 <ModBus_ProcessFrame+0xf8>
    15ca:	4789                	li	a5,2
    15cc:	b5e5                	j	14b4 <ModBus_ProcessFrame+0x5c>

000015ce <ModBus_TimeoutCheck>:
    15ce:	b63fe2ef          	jal	t0,130 <__riscv_save_0>
    15d2:	200007b7          	lui	a5,0x20000
    15d6:	1207d783          	lhu	a5,288(a5) # 20000120 <mb_frame+0x100>
    15da:	82c18413          	addi	s0,gp,-2004 # 2000025c <timeout_cnt.4937>
    15de:	cb81                	beqz	a5,15ee <ModBus_TimeoutCheck+0x20>
    15e0:	401c                	lw	a5,0(s0)
    15e2:	4725                	li	a4,9
    15e4:	0785                	addi	a5,a5,1
    15e6:	c01c                	sw	a5,0(s0)
    15e8:	00f77563          	bgeu	a4,a5,15f2 <ModBus_TimeoutCheck+0x24>
    15ec:	35b5                	jal	1458 <ModBus_ProcessFrame>
    15ee:	00042023          	sw	zero,0(s0)
    15f2:	b63fe06f          	j	154 <__riscv_restore_0>

000015f6 <USART1_IRQHandler>:
    15f6:	1141                	addi	sp,sp,-16
    15f8:	c622                	sw	s0,12(sp)
    15fa:	40014437          	lui	s0,0x40014
    15fe:	52500593          	li	a1,1317
    1602:	80040513          	addi	a0,s0,-2048 # 40013800 <_eusrstack+0x2000e800>
    1606:	84dff0ef          	jal	ra,e52 <USART_GetITStatus>
    160a:	c521                	beqz	a0,1652 <USART1_IRQHandler+0x5c>
    160c:	80040513          	addi	a0,s0,-2048
    1610:	831ff0ef          	jal	ra,e40 <USART_ReceiveData>
    1614:	200007b7          	lui	a5,0x20000
    1618:	02078713          	addi	a4,a5,32 # 20000020 <mb_frame>
    161c:	10075703          	lhu	a4,256(a4) # 1100 <OLED_WriteCommand+0xc>
    1620:	0ff00693          	li	a3,255
    1624:	02078793          	addi	a5,a5,32
    1628:	00e6e863          	bltu	a3,a4,1638 <USART1_IRQHandler+0x42>
    162c:	00170693          	addi	a3,a4,1
    1630:	973e                	add	a4,a4,a5
    1632:	10d79023          	sh	a3,256(a5)
    1636:	a308                	sb	a0,0(a4)
    1638:	40000737          	lui	a4,0x40000
    163c:	335a                	lhu	a4,36(a4)
    163e:	40014537          	lui	a0,0x40014
    1642:	52500593          	li	a1,1317
    1646:	80050513          	addi	a0,a0,-2048 # 40013800 <_eusrstack+0x2000e800>
    164a:	20e7a423          	sw	a4,520(a5)
    164e:	841ff0ef          	jal	ra,e8e <USART_ClearITPendingBit>
    1652:	4432                	lw	s0,12(sp)
    1654:	0141                	addi	sp,sp,16
    1656:	30200073          	mret

0000165a <TIM2_IRQHandler>:
    165a:	4585                	li	a1,1
    165c:	40000537          	lui	a0,0x40000
    1660:	edaff0ef          	jal	ra,d3a <TIM_GetITStatus>
    1664:	c519                	beqz	a0,1672 <TIM2_IRQHandler+0x18>
    1666:	37a5                	jal	15ce <ModBus_TimeoutCheck>
    1668:	4585                	li	a1,1
    166a:	40000537          	lui	a0,0x40000
    166e:	ee4ff0ef          	jal	ra,d52 <TIM_ClearITPendingBit>
    1672:	30200073          	mret

00001676 <AD_Init>:
    1676:	abbfe2ef          	jal	t0,130 <__riscv_save_0>
    167a:	7179                	addi	sp,sp,-48
    167c:	4585                	li	a1,1
    167e:	20000513          	li	a0,512
    1682:	d52ff0ef          	jal	ra,bd4 <RCC_APB2PeriphClockCmd>
    1686:	4585                	li	a1,1
    1688:	4511                	li	a0,4
    168a:	d4aff0ef          	jal	ra,bd4 <RCC_APB2PeriphClockCmd>
    168e:	6521                	lui	a0,0x8
    1690:	c74ff0ef          	jal	ra,b04 <RCC_ADCCLKConfig>
    1694:	478d                	li	a5,3
    1696:	40011537          	lui	a0,0x40011
    169a:	827c                	sh	a5,4(sp)
    169c:	004c                	addi	a1,sp,4
    169e:	478d                	li	a5,3
    16a0:	80050513          	addi	a0,a0,-2048 # 40010800 <_eusrstack+0x2000b800>
    16a4:	40012437          	lui	s0,0x40012
    16a8:	c43e                	sw	a5,8(sp)
    16aa:	c602                	sw	zero,12(sp)
    16ac:	af2ff0ef          	jal	ra,99e <GPIO_Init>
    16b0:	4689                	li	a3,2
    16b2:	4605                	li	a2,1
    16b4:	4581                	li	a1,0
    16b6:	40040513          	addi	a0,s0,1024 # 40012400 <_eusrstack+0x2000d400>
    16ba:	a12ff0ef          	jal	ra,8cc <ADC_RegularChannelConfig>
    16be:	4689                	li	a3,2
    16c0:	4609                	li	a2,2
    16c2:	4585                	li	a1,1
    16c4:	40040513          	addi	a0,s0,1024
    16c8:	a04ff0ef          	jal	ra,8cc <ADC_RegularChannelConfig>
    16cc:	000e07b7          	lui	a5,0xe0
    16d0:	ce3e                	sw	a5,28(sp)
    16d2:	080c                	addi	a1,sp,16
    16d4:	4785                	li	a5,1
    16d6:	40040513          	addi	a0,s0,1024
    16da:	02f10223          	sb	a5,36(sp)
    16de:	c802                	sw	zero,16(sp)
    16e0:	d002                	sw	zero,32(sp)
    16e2:	cc02                	sw	zero,24(sp)
    16e4:	ca02                	sw	zero,20(sp)
    16e6:	944ff0ef          	jal	ra,82a <ADC_Init>
    16ea:	4585                	li	a1,1
    16ec:	40040513          	addi	a0,s0,1024
    16f0:	990ff0ef          	jal	ra,880 <ADC_Cmd>
    16f4:	40040513          	addi	a0,s0,1024
    16f8:	998ff0ef          	jal	ra,890 <ADC_ResetCalibration>
    16fc:	40040913          	addi	s2,s0,1024
    1700:	4485                	li	s1,1
    1702:	854a                	mv	a0,s2
    1704:	996ff0ef          	jal	ra,89a <ADC_GetResetCalibrationStatus>
    1708:	fe950de3          	beq	a0,s1,1702 <AD_Init+0x8c>
    170c:	40040513          	addi	a0,s0,1024
    1710:	40012437          	lui	s0,0x40012
    1714:	98eff0ef          	jal	ra,8a2 <ADC_StartCalibration>
    1718:	40040413          	addi	s0,s0,1024 # 40012400 <_eusrstack+0x2000d400>
    171c:	4485                	li	s1,1
    171e:	8522                	mv	a0,s0
    1720:	98cff0ef          	jal	ra,8ac <ADC_GetCalibrationStatus>
    1724:	fe950de3          	beq	a0,s1,171e <AD_Init+0xa8>
    1728:	6145                	addi	sp,sp,48
    172a:	a2bfe06f          	j	154 <__riscv_restore_0>

0000172e <AD_GetValue_0>:
    172e:	a03fe2ef          	jal	t0,130 <__riscv_save_0>
    1732:	40012437          	lui	s0,0x40012
    1736:	4589                	li	a1,2
    1738:	40040513          	addi	a0,s0,1024 # 40012400 <_eusrstack+0x2000d400>
    173c:	a5aff0ef          	jal	ra,996 <ADC_ClearFlag>
    1740:	4689                	li	a3,2
    1742:	4605                	li	a2,1
    1744:	4581                	li	a1,0
    1746:	40040513          	addi	a0,s0,1024
    174a:	982ff0ef          	jal	ra,8cc <ADC_RegularChannelConfig>
    174e:	4585                	li	a1,1
    1750:	40040513          	addi	a0,s0,1024
    1754:	960ff0ef          	jal	ra,8b4 <ADC_SoftwareStartConvCmd>
    1758:	40040493          	addi	s1,s0,1024
    175c:	4589                	li	a1,2
    175e:	8526                	mv	a0,s1
    1760:	a2cff0ef          	jal	ra,98c <ADC_GetFlagStatus>
    1764:	dd65                	beqz	a0,175c <AD_GetValue_0+0x2e>
    1766:	40040513          	addi	a0,s0,1024
    176a:	a1aff0ef          	jal	ra,984 <ADC_GetConversionValue>
    176e:	9e7fe06f          	j	154 <__riscv_restore_0>

00001772 <AD_GetValue_1>:
    1772:	9bffe2ef          	jal	t0,130 <__riscv_save_0>
    1776:	40012437          	lui	s0,0x40012
    177a:	4589                	li	a1,2
    177c:	40040513          	addi	a0,s0,1024 # 40012400 <_eusrstack+0x2000d400>
    1780:	a16ff0ef          	jal	ra,996 <ADC_ClearFlag>
    1784:	4689                	li	a3,2
    1786:	4605                	li	a2,1
    1788:	4585                	li	a1,1
    178a:	40040513          	addi	a0,s0,1024
    178e:	93eff0ef          	jal	ra,8cc <ADC_RegularChannelConfig>
    1792:	4585                	li	a1,1
    1794:	40040513          	addi	a0,s0,1024
    1798:	91cff0ef          	jal	ra,8b4 <ADC_SoftwareStartConvCmd>
    179c:	40040493          	addi	s1,s0,1024
    17a0:	4589                	li	a1,2
    17a2:	8526                	mv	a0,s1
    17a4:	9e8ff0ef          	jal	ra,98c <ADC_GetFlagStatus>
    17a8:	dd65                	beqz	a0,17a0 <AD_GetValue_1+0x2e>
    17aa:	40040513          	addi	a0,s0,1024
    17ae:	9d6ff0ef          	jal	ra,984 <ADC_GetConversionValue>
    17b2:	9a3fe06f          	j	154 <__riscv_restore_0>

000017b6 <Delay_Init>:
    17b6:	200007b7          	lui	a5,0x20000
    17ba:	2347a783          	lw	a5,564(a5) # 20000234 <SystemCoreClock>
    17be:	007a1737          	lui	a4,0x7a1
    17c2:	20070713          	addi	a4,a4,512 # 7a1200 <_data_lma+0x79cc3c>
    17c6:	02e7d7b3          	divu	a5,a5,a4
    17ca:	0ff7f793          	andi	a5,a5,255
    17ce:	82f18923          	sb	a5,-1998(gp) # 20000262 <p_us>
    17d2:	3e800713          	li	a4,1000
    17d6:	02e787b3          	mul	a5,a5,a4
    17da:	82f19823          	sh	a5,-2000(gp) # 20000260 <p_ms>
    17de:	8082                	ret

000017e0 <Delay_Us>:
    17e0:	e000f7b7          	lui	a5,0xe000f
    17e4:	43d8                	lw	a4,4(a5)
    17e6:	4681                	li	a3,0
    17e8:	9b79                	andi	a4,a4,-2
    17ea:	c3d8                	sw	a4,4(a5)
    17ec:	8321c703          	lbu	a4,-1998(gp) # 20000262 <p_us>
    17f0:	02a70633          	mul	a2,a4,a0
    17f4:	cb90                	sw	a2,16(a5)
    17f6:	cbd4                	sw	a3,20(a5)
    17f8:	4398                	lw	a4,0(a5)
    17fa:	01076713          	ori	a4,a4,16
    17fe:	c398                	sw	a4,0(a5)
    1800:	4398                	lw	a4,0(a5)
    1802:	02176713          	ori	a4,a4,33
    1806:	c398                	sw	a4,0(a5)
    1808:	43d8                	lw	a4,4(a5)
    180a:	8b05                	andi	a4,a4,1
    180c:	df75                	beqz	a4,1808 <Delay_Us+0x28>
    180e:	4398                	lw	a4,0(a5)
    1810:	9b79                	andi	a4,a4,-2
    1812:	c398                	sw	a4,0(a5)
    1814:	8082                	ret

00001816 <Delay_Ms>:
    1816:	e000f7b7          	lui	a5,0xe000f
    181a:	43d8                	lw	a4,4(a5)
    181c:	4681                	li	a3,0
    181e:	9b79                	andi	a4,a4,-2
    1820:	c3d8                	sw	a4,4(a5)
    1822:	8301d703          	lhu	a4,-2000(gp) # 20000260 <p_ms>
    1826:	02a70633          	mul	a2,a4,a0
    182a:	cb90                	sw	a2,16(a5)
    182c:	cbd4                	sw	a3,20(a5)
    182e:	4398                	lw	a4,0(a5)
    1830:	01076713          	ori	a4,a4,16
    1834:	c398                	sw	a4,0(a5)
    1836:	4398                	lw	a4,0(a5)
    1838:	02176713          	ori	a4,a4,33
    183c:	c398                	sw	a4,0(a5)
    183e:	43d8                	lw	a4,4(a5)
    1840:	8b05                	andi	a4,a4,1
    1842:	df75                	beqz	a4,183e <Delay_Ms+0x28>
    1844:	4398                	lw	a4,0(a5)
    1846:	9b79                	andi	a4,a4,-2
    1848:	c398                	sw	a4,0(a5)
    184a:	8082                	ret

0000184c <__adddf3>:
    184c:	00100837          	lui	a6,0x100
    1850:	1101                	addi	sp,sp,-32
    1852:	187d                	addi	a6,a6,-1
    1854:	00b87733          	and	a4,a6,a1
    1858:	ca26                	sw	s1,20(sp)
    185a:	00d87833          	and	a6,a6,a3
    185e:	0145d493          	srli	s1,a1,0x14
    1862:	0146d313          	srli	t1,a3,0x14
    1866:	00371e13          	slli	t3,a4,0x3
    186a:	c64e                	sw	s3,12(sp)
    186c:	01d55713          	srli	a4,a0,0x1d
    1870:	080e                	slli	a6,a6,0x3
    1872:	01d65793          	srli	a5,a2,0x1d
    1876:	7ff4f493          	andi	s1,s1,2047
    187a:	7ff37313          	andi	t1,t1,2047
    187e:	ce06                	sw	ra,28(sp)
    1880:	cc22                	sw	s0,24(sp)
    1882:	c84a                	sw	s2,16(sp)
    1884:	01f5d993          	srli	s3,a1,0x1f
    1888:	01f6de93          	srli	t4,a3,0x1f
    188c:	01c76733          	or	a4,a4,t3
    1890:	00351f13          	slli	t5,a0,0x3
    1894:	0107e833          	or	a6,a5,a6
    1898:	00361f93          	slli	t6,a2,0x3
    189c:	40648e33          	sub	t3,s1,t1
    18a0:	19d98063          	beq	s3,t4,1a20 <__adddf3+0x1d4>
    18a4:	13c05663          	blez	t3,19d0 <__adddf3+0x184>
    18a8:	1c030463          	beqz	t1,1a70 <__adddf3+0x224>
    18ac:	008006b7          	lui	a3,0x800
    18b0:	7ff00793          	li	a5,2047
    18b4:	00d86833          	or	a6,a6,a3
    18b8:	36f48f63          	beq	s1,a5,1c36 <__adddf3+0x3ea>
    18bc:	03800793          	li	a5,56
    18c0:	35c7c063          	blt	a5,t3,1c00 <__adddf3+0x3b4>
    18c4:	47fd                	li	a5,31
    18c6:	47c7cd63          	blt	a5,t3,1d40 <__adddf3+0x4f4>
    18ca:	02000513          	li	a0,32
    18ce:	41c50533          	sub	a0,a0,t3
    18d2:	01cfd7b3          	srl	a5,t6,t3
    18d6:	00a816b3          	sll	a3,a6,a0
    18da:	00af9933          	sll	s2,t6,a0
    18de:	8edd                	or	a3,a3,a5
    18e0:	01203933          	snez	s2,s2
    18e4:	01c857b3          	srl	a5,a6,t3
    18e8:	0126e933          	or	s2,a3,s2
    18ec:	8f1d                	sub	a4,a4,a5
    18ee:	412f0933          	sub	s2,t5,s2
    18f2:	012f37b3          	sltu	a5,t5,s2
    18f6:	40f70633          	sub	a2,a4,a5
    18fa:	00861793          	slli	a5,a2,0x8
    18fe:	2407d463          	bgez	a5,1b46 <__adddf3+0x2fa>
    1902:	00800737          	lui	a4,0x800
    1906:	177d                	addi	a4,a4,-1
    1908:	00e67433          	and	s0,a2,a4
    190c:	2c040c63          	beqz	s0,1be4 <__adddf3+0x398>
    1910:	8522                	mv	a0,s0
    1912:	338020ef          	jal	ra,3c4a <__clzsi2>
    1916:	ff850713          	addi	a4,a0,-8
    191a:	02000793          	li	a5,32
    191e:	8f99                	sub	a5,a5,a4
    1920:	00f957b3          	srl	a5,s2,a5
    1924:	00e41633          	sll	a2,s0,a4
    1928:	8fd1                	or	a5,a5,a2
    192a:	00e91933          	sll	s2,s2,a4
    192e:	2a974163          	blt	a4,s1,1bd0 <__adddf3+0x384>
    1932:	40970533          	sub	a0,a4,s1
    1936:	00150613          	addi	a2,a0,1
    193a:	477d                	li	a4,31
    193c:	38c74d63          	blt	a4,a2,1cd6 <__adddf3+0x48a>
    1940:	02000713          	li	a4,32
    1944:	8f11                	sub	a4,a4,a2
    1946:	00c956b3          	srl	a3,s2,a2
    194a:	00e91933          	sll	s2,s2,a4
    194e:	00e79733          	sll	a4,a5,a4
    1952:	8f55                	or	a4,a4,a3
    1954:	01203933          	snez	s2,s2
    1958:	01276933          	or	s2,a4,s2
    195c:	00c7d633          	srl	a2,a5,a2
    1960:	4481                	li	s1,0
    1962:	00797793          	andi	a5,s2,7
    1966:	cf81                	beqz	a5,197e <__adddf3+0x132>
    1968:	00f97713          	andi	a4,s2,15
    196c:	4791                	li	a5,4
    196e:	00f70863          	beq	a4,a5,197e <__adddf3+0x132>
    1972:	00490713          	addi	a4,s2,4
    1976:	01273933          	sltu	s2,a4,s2
    197a:	964a                	add	a2,a2,s2
    197c:	893a                	mv	s2,a4
    197e:	00861793          	slli	a5,a2,0x8
    1982:	1c07d663          	bgez	a5,1b4e <__adddf3+0x302>
    1986:	00148513          	addi	a0,s1,1
    198a:	7ff00793          	li	a5,2047
    198e:	85ce                	mv	a1,s3
    1990:	20f50463          	beq	a0,a5,1b98 <__adddf3+0x34c>
    1994:	ff8007b7          	lui	a5,0xff800
    1998:	17fd                	addi	a5,a5,-1
    199a:	8ff1                	and	a5,a5,a2
    199c:	01d79893          	slli	a7,a5,0x1d
    19a0:	00395913          	srli	s2,s2,0x3
    19a4:	07a6                	slli	a5,a5,0x9
    19a6:	0128e8b3          	or	a7,a7,s2
    19aa:	83b1                	srli	a5,a5,0xc
    19ac:	7ff57513          	andi	a0,a0,2047
    19b0:	00c79693          	slli	a3,a5,0xc
    19b4:	0552                	slli	a0,a0,0x14
    19b6:	40f2                	lw	ra,28(sp)
    19b8:	4462                	lw	s0,24(sp)
    19ba:	82b1                	srli	a3,a3,0xc
    19bc:	05fe                	slli	a1,a1,0x1f
    19be:	8ec9                	or	a3,a3,a0
    19c0:	8ecd                	or	a3,a3,a1
    19c2:	44d2                	lw	s1,20(sp)
    19c4:	4942                	lw	s2,16(sp)
    19c6:	49b2                	lw	s3,12(sp)
    19c8:	8546                	mv	a0,a7
    19ca:	85b6                	mv	a1,a3
    19cc:	6105                	addi	sp,sp,32
    19ce:	8082                	ret
    19d0:	0a0e1e63          	bnez	t3,1a8c <__adddf3+0x240>
    19d4:	00148313          	addi	t1,s1,1
    19d8:	7fe37313          	andi	t1,t1,2046
    19dc:	22031763          	bnez	t1,1c0a <__adddf3+0x3be>
    19e0:	01e767b3          	or	a5,a4,t5
    19e4:	01f868b3          	or	a7,a6,t6
    19e8:	1a049d63          	bnez	s1,1ba2 <__adddf3+0x356>
    19ec:	40078763          	beqz	a5,1dfa <__adddf3+0x5ae>
    19f0:	44088663          	beqz	a7,1e3c <__adddf3+0x5f0>
    19f4:	41ff0933          	sub	s2,t5,t6
    19f8:	410707b3          	sub	a5,a4,a6
    19fc:	012f3633          	sltu	a2,t5,s2
    1a00:	40c78633          	sub	a2,a5,a2
    1a04:	00861793          	slli	a5,a2,0x8
    1a08:	4c07d663          	bgez	a5,1ed4 <__adddf3+0x688>
    1a0c:	41ef8933          	sub	s2,t6,t5
    1a10:	40e807b3          	sub	a5,a6,a4
    1a14:	012fb633          	sltu	a2,t6,s2
    1a18:	40c78633          	sub	a2,a5,a2
    1a1c:	89f6                	mv	s3,t4
    1a1e:	b791                	j	1962 <__adddf3+0x116>
    1a20:	0fc05063          	blez	t3,1b00 <__adddf3+0x2b4>
    1a24:	0c030063          	beqz	t1,1ae4 <__adddf3+0x298>
    1a28:	008006b7          	lui	a3,0x800
    1a2c:	7ff00793          	li	a5,2047
    1a30:	00d86833          	or	a6,a6,a3
    1a34:	3af48a63          	beq	s1,a5,1de8 <__adddf3+0x59c>
    1a38:	03800793          	li	a5,56
    1a3c:	13c7cb63          	blt	a5,t3,1b72 <__adddf3+0x326>
    1a40:	47fd                	li	a5,31
    1a42:	35c7df63          	bge	a5,t3,1da0 <__adddf3+0x554>
    1a46:	fe0e0913          	addi	s2,t3,-32
    1a4a:	02000793          	li	a5,32
    1a4e:	012856b3          	srl	a3,a6,s2
    1a52:	00fe0a63          	beq	t3,a5,1a66 <__adddf3+0x21a>
    1a56:	04000913          	li	s2,64
    1a5a:	41c90933          	sub	s2,s2,t3
    1a5e:	01281933          	sll	s2,a6,s2
    1a62:	012fefb3          	or	t6,t6,s2
    1a66:	01f03933          	snez	s2,t6
    1a6a:	00d96933          	or	s2,s2,a3
    1a6e:	a231                	j	1b7a <__adddf3+0x32e>
    1a70:	01f867b3          	or	a5,a6,t6
    1a74:	1c078a63          	beqz	a5,1c48 <__adddf3+0x3fc>
    1a78:	fffe0793          	addi	a5,t3,-1
    1a7c:	38078c63          	beqz	a5,1e14 <__adddf3+0x5c8>
    1a80:	7ff00693          	li	a3,2047
    1a84:	1ade0963          	beq	t3,a3,1c36 <__adddf3+0x3ea>
    1a88:	8e3e                	mv	t3,a5
    1a8a:	bd0d                	j	18bc <__adddf3+0x70>
    1a8c:	409305b3          	sub	a1,t1,s1
    1a90:	22049163          	bnez	s1,1cb2 <__adddf3+0x466>
    1a94:	01e767b3          	or	a5,a4,t5
    1a98:	32078763          	beqz	a5,1dc6 <__adddf3+0x57a>
    1a9c:	fff58793          	addi	a5,a1,-1
    1aa0:	44078163          	beqz	a5,1ee2 <__adddf3+0x696>
    1aa4:	7ff00693          	li	a3,2047
    1aa8:	20d58c63          	beq	a1,a3,1cc0 <__adddf3+0x474>
    1aac:	85be                	mv	a1,a5
    1aae:	03800793          	li	a5,56
    1ab2:	2ab7cc63          	blt	a5,a1,1d6a <__adddf3+0x51e>
    1ab6:	47fd                	li	a5,31
    1ab8:	3cb7cf63          	blt	a5,a1,1e96 <__adddf3+0x64a>
    1abc:	02000793          	li	a5,32
    1ac0:	8f8d                	sub	a5,a5,a1
    1ac2:	00f71933          	sll	s2,a4,a5
    1ac6:	00bf56b3          	srl	a3,t5,a1
    1aca:	00ff17b3          	sll	a5,t5,a5
    1ace:	00d96933          	or	s2,s2,a3
    1ad2:	00f037b3          	snez	a5,a5
    1ad6:	00b75733          	srl	a4,a4,a1
    1ada:	00f96933          	or	s2,s2,a5
    1ade:	40e80833          	sub	a6,a6,a4
    1ae2:	ac41                	j	1d72 <__adddf3+0x526>
    1ae4:	01f867b3          	or	a5,a6,t6
    1ae8:	34078063          	beqz	a5,1e28 <__adddf3+0x5dc>
    1aec:	fffe0793          	addi	a5,t3,-1
    1af0:	20078a63          	beqz	a5,1d04 <__adddf3+0x4b8>
    1af4:	7ff00693          	li	a3,2047
    1af8:	2ede0863          	beq	t3,a3,1de8 <__adddf3+0x59c>
    1afc:	8e3e                	mv	t3,a5
    1afe:	bf2d                	j	1a38 <__adddf3+0x1ec>
    1b00:	140e1e63          	bnez	t3,1c5c <__adddf3+0x410>
    1b04:	00148693          	addi	a3,s1,1
    1b08:	7fe6f793          	andi	a5,a3,2046
    1b0c:	34079163          	bnez	a5,1e4e <__adddf3+0x602>
    1b10:	01e767b3          	or	a5,a4,t5
    1b14:	2c049563          	bnez	s1,1dde <__adddf3+0x592>
    1b18:	3e078063          	beqz	a5,1ef8 <__adddf3+0x6ac>
    1b1c:	01f867b3          	or	a5,a6,t6
    1b20:	30078e63          	beqz	a5,1e3c <__adddf3+0x5f0>
    1b24:	01ff0933          	add	s2,t5,t6
    1b28:	010707b3          	add	a5,a4,a6
    1b2c:	01e93f33          	sltu	t5,s2,t5
    1b30:	01e78633          	add	a2,a5,t5
    1b34:	00861793          	slli	a5,a2,0x8
    1b38:	0007d763          	bgez	a5,1b46 <__adddf3+0x2fa>
    1b3c:	ff8007b7          	lui	a5,0xff800
    1b40:	17fd                	addi	a5,a5,-1
    1b42:	8e7d                	and	a2,a2,a5
    1b44:	4485                	li	s1,1
    1b46:	00797793          	andi	a5,s2,7
    1b4a:	e0079fe3          	bnez	a5,1968 <__adddf3+0x11c>
    1b4e:	01d61793          	slli	a5,a2,0x1d
    1b52:	00395893          	srli	a7,s2,0x3
    1b56:	00f8e8b3          	or	a7,a7,a5
    1b5a:	00365793          	srli	a5,a2,0x3
    1b5e:	7ff00713          	li	a4,2047
    1b62:	04e48d63          	beq	s1,a4,1bbc <__adddf3+0x370>
    1b66:	07b2                	slli	a5,a5,0xc
    1b68:	83b1                	srli	a5,a5,0xc
    1b6a:	7ff4f513          	andi	a0,s1,2047
    1b6e:	85ce                	mv	a1,s3
    1b70:	b581                	j	19b0 <__adddf3+0x164>
    1b72:	01f86933          	or	s2,a6,t6
    1b76:	01203933          	snez	s2,s2
    1b7a:	997a                	add	s2,s2,t5
    1b7c:	01e937b3          	sltu	a5,s2,t5
    1b80:	00e78633          	add	a2,a5,a4
    1b84:	00861793          	slli	a5,a2,0x8
    1b88:	fa07dfe3          	bgez	a5,1b46 <__adddf3+0x2fa>
    1b8c:	0485                	addi	s1,s1,1
    1b8e:	7ff00793          	li	a5,2047
    1b92:	18f49663          	bne	s1,a5,1d1e <__adddf3+0x4d2>
    1b96:	85ce                	mv	a1,s3
    1b98:	7ff00513          	li	a0,2047
    1b9c:	4781                	li	a5,0
    1b9e:	4881                	li	a7,0
    1ba0:	bd01                	j	19b0 <__adddf3+0x164>
    1ba2:	ebc1                	bnez	a5,1c32 <__adddf3+0x3e6>
    1ba4:	3a088463          	beqz	a7,1f4c <__adddf3+0x700>
    1ba8:	00361693          	slli	a3,a2,0x3
    1bac:	01d81793          	slli	a5,a6,0x1d
    1bb0:	828d                	srli	a3,a3,0x3
    1bb2:	00d7e8b3          	or	a7,a5,a3
    1bb6:	89f6                	mv	s3,t4
    1bb8:	00385793          	srli	a5,a6,0x3
    1bbc:	00f8e7b3          	or	a5,a7,a5
    1bc0:	dbf9                	beqz	a5,1b96 <__adddf3+0x34a>
    1bc2:	4581                	li	a1,0
    1bc4:	7ff00513          	li	a0,2047
    1bc8:	000807b7          	lui	a5,0x80
    1bcc:	4881                	li	a7,0
    1bce:	b3cd                	j	19b0 <__adddf3+0x164>
    1bd0:	ff800637          	lui	a2,0xff800
    1bd4:	167d                	addi	a2,a2,-1
    1bd6:	8e7d                	and	a2,a2,a5
    1bd8:	00797793          	andi	a5,s2,7
    1bdc:	8c99                	sub	s1,s1,a4
    1bde:	d80795e3          	bnez	a5,1968 <__adddf3+0x11c>
    1be2:	b7b5                	j	1b4e <__adddf3+0x302>
    1be4:	854a                	mv	a0,s2
    1be6:	064020ef          	jal	ra,3c4a <__clzsi2>
    1bea:	01850713          	addi	a4,a0,24
    1bee:	47fd                	li	a5,31
    1bf0:	d2e7d5e3          	bge	a5,a4,191a <__adddf3+0xce>
    1bf4:	ff850613          	addi	a2,a0,-8
    1bf8:	00c917b3          	sll	a5,s2,a2
    1bfc:	4901                	li	s2,0
    1bfe:	bb05                	j	192e <__adddf3+0xe2>
    1c00:	01f86933          	or	s2,a6,t6
    1c04:	01203933          	snez	s2,s2
    1c08:	b1dd                	j	18ee <__adddf3+0xa2>
    1c0a:	41ff0933          	sub	s2,t5,t6
    1c0e:	41070633          	sub	a2,a4,a6
    1c12:	012f3433          	sltu	s0,t5,s2
    1c16:	40860433          	sub	s0,a2,s0
    1c1a:	00841793          	slli	a5,s0,0x8
    1c1e:	2407cd63          	bltz	a5,1e78 <__adddf3+0x62c>
    1c22:	008968b3          	or	a7,s2,s0
    1c26:	ce0893e3          	bnez	a7,190c <__adddf3+0xc0>
    1c2a:	4781                	li	a5,0
    1c2c:	4981                	li	s3,0
    1c2e:	4481                	li	s1,0
    1c30:	bf1d                	j	1b66 <__adddf3+0x31a>
    1c32:	f80898e3          	bnez	a7,1bc2 <__adddf3+0x376>
    1c36:	050e                	slli	a0,a0,0x3
    1c38:	01d71793          	slli	a5,a4,0x1d
    1c3c:	810d                	srli	a0,a0,0x3
    1c3e:	00a7e8b3          	or	a7,a5,a0
    1c42:	00375793          	srli	a5,a4,0x3
    1c46:	bf9d                	j	1bbc <__adddf3+0x370>
    1c48:	050e                	slli	a0,a0,0x3
    1c4a:	01d71793          	slli	a5,a4,0x1d
    1c4e:	810d                	srli	a0,a0,0x3
    1c50:	00a7e8b3          	or	a7,a5,a0
    1c54:	84f2                	mv	s1,t3
    1c56:	00375793          	srli	a5,a4,0x3
    1c5a:	b711                	j	1b5e <__adddf3+0x312>
    1c5c:	40930533          	sub	a0,t1,s1
    1c60:	12048263          	beqz	s1,1d84 <__adddf3+0x538>
    1c64:	008006b7          	lui	a3,0x800
    1c68:	7ff00793          	li	a5,2047
    1c6c:	8f55                	or	a4,a4,a3
    1c6e:	2ef30d63          	beq	t1,a5,1f68 <__adddf3+0x71c>
    1c72:	03800793          	li	a5,56
    1c76:	20a7cb63          	blt	a5,a0,1e8c <__adddf3+0x640>
    1c7a:	47fd                	li	a5,31
    1c7c:	2aa7c363          	blt	a5,a0,1f22 <__adddf3+0x6d6>
    1c80:	02000793          	li	a5,32
    1c84:	8f89                	sub	a5,a5,a0
    1c86:	00f71933          	sll	s2,a4,a5
    1c8a:	00af56b3          	srl	a3,t5,a0
    1c8e:	00ff17b3          	sll	a5,t5,a5
    1c92:	00d96933          	or	s2,s2,a3
    1c96:	00f037b3          	snez	a5,a5
    1c9a:	00a75733          	srl	a4,a4,a0
    1c9e:	00f96933          	or	s2,s2,a5
    1ca2:	983a                	add	a6,a6,a4
    1ca4:	997e                	add	s2,s2,t6
    1ca6:	01f937b3          	sltu	a5,s2,t6
    1caa:	01078633          	add	a2,a5,a6
    1cae:	849a                	mv	s1,t1
    1cb0:	bdd1                	j	1b84 <__adddf3+0x338>
    1cb2:	008006b7          	lui	a3,0x800
    1cb6:	7ff00793          	li	a5,2047
    1cba:	8f55                	or	a4,a4,a3
    1cbc:	def319e3          	bne	t1,a5,1aae <__adddf3+0x262>
    1cc0:	00361793          	slli	a5,a2,0x3
    1cc4:	838d                	srli	a5,a5,0x3
    1cc6:	01d81893          	slli	a7,a6,0x1d
    1cca:	0117e8b3          	or	a7,a5,a7
    1cce:	89f6                	mv	s3,t4
    1cd0:	00385793          	srli	a5,a6,0x3
    1cd4:	b5e5                	j	1bbc <__adddf3+0x370>
    1cd6:	fe150713          	addi	a4,a0,-31
    1cda:	02000693          	li	a3,32
    1cde:	00e7d733          	srl	a4,a5,a4
    1ce2:	00d60a63          	beq	a2,a3,1cf6 <__adddf3+0x4aa>
    1ce6:	04000693          	li	a3,64
    1cea:	40c68633          	sub	a2,a3,a2
    1cee:	00c79633          	sll	a2,a5,a2
    1cf2:	00c96933          	or	s2,s2,a2
    1cf6:	01203933          	snez	s2,s2
    1cfa:	00e96933          	or	s2,s2,a4
    1cfe:	4601                	li	a2,0
    1d00:	4481                	li	s1,0
    1d02:	b591                	j	1b46 <__adddf3+0x2fa>
    1d04:	01ff0933          	add	s2,t5,t6
    1d08:	010707b3          	add	a5,a4,a6
    1d0c:	01e93633          	sltu	a2,s2,t5
    1d10:	963e                	add	a2,a2,a5
    1d12:	00861793          	slli	a5,a2,0x8
    1d16:	4485                	li	s1,1
    1d18:	e207d7e3          	bgez	a5,1b46 <__adddf3+0x2fa>
    1d1c:	4489                	li	s1,2
    1d1e:	ff8007b7          	lui	a5,0xff800
    1d22:	17fd                	addi	a5,a5,-1
    1d24:	8ff1                	and	a5,a5,a2
    1d26:	00195713          	srli	a4,s2,0x1
    1d2a:	00197913          	andi	s2,s2,1
    1d2e:	01276933          	or	s2,a4,s2
    1d32:	01f79893          	slli	a7,a5,0x1f
    1d36:	0128e933          	or	s2,a7,s2
    1d3a:	0017d613          	srli	a2,a5,0x1
    1d3e:	b115                	j	1962 <__adddf3+0x116>
    1d40:	fe0e0913          	addi	s2,t3,-32
    1d44:	02000793          	li	a5,32
    1d48:	012856b3          	srl	a3,a6,s2
    1d4c:	00fe0a63          	beq	t3,a5,1d60 <__adddf3+0x514>
    1d50:	04000913          	li	s2,64
    1d54:	41c90933          	sub	s2,s2,t3
    1d58:	01281933          	sll	s2,a6,s2
    1d5c:	012fefb3          	or	t6,t6,s2
    1d60:	01f03933          	snez	s2,t6
    1d64:	00d96933          	or	s2,s2,a3
    1d68:	b659                	j	18ee <__adddf3+0xa2>
    1d6a:	01e76933          	or	s2,a4,t5
    1d6e:	01203933          	snez	s2,s2
    1d72:	412f8933          	sub	s2,t6,s2
    1d76:	012fb7b3          	sltu	a5,t6,s2
    1d7a:	40f80633          	sub	a2,a6,a5
    1d7e:	849a                	mv	s1,t1
    1d80:	89f6                	mv	s3,t4
    1d82:	bea5                	j	18fa <__adddf3+0xae>
    1d84:	01e767b3          	or	a5,a4,t5
    1d88:	18078263          	beqz	a5,1f0c <__adddf3+0x6c0>
    1d8c:	fff50793          	addi	a5,a0,-1
    1d90:	1c078463          	beqz	a5,1f58 <__adddf3+0x70c>
    1d94:	7ff00693          	li	a3,2047
    1d98:	12d50463          	beq	a0,a3,1ec0 <__adddf3+0x674>
    1d9c:	853e                	mv	a0,a5
    1d9e:	bdd1                	j	1c72 <__adddf3+0x426>
    1da0:	02000793          	li	a5,32
    1da4:	41c787b3          	sub	a5,a5,t3
    1da8:	00f816b3          	sll	a3,a6,a5
    1dac:	00ff9933          	sll	s2,t6,a5
    1db0:	01cfd633          	srl	a2,t6,t3
    1db4:	8ed1                	or	a3,a3,a2
    1db6:	01203933          	snez	s2,s2
    1dba:	01c857b3          	srl	a5,a6,t3
    1dbe:	0126e933          	or	s2,a3,s2
    1dc2:	973e                	add	a4,a4,a5
    1dc4:	bb5d                	j	1b7a <__adddf3+0x32e>
    1dc6:	00361793          	slli	a5,a2,0x3
    1dca:	838d                	srli	a5,a5,0x3
    1dcc:	01d81893          	slli	a7,a6,0x1d
    1dd0:	0117e8b3          	or	a7,a5,a7
    1dd4:	84ae                	mv	s1,a1
    1dd6:	00385793          	srli	a5,a6,0x3
    1dda:	89f6                	mv	s3,t4
    1ddc:	b349                	j	1b5e <__adddf3+0x312>
    1dde:	c3ed                	beqz	a5,1ec0 <__adddf3+0x674>
    1de0:	01f86933          	or	s2,a6,t6
    1de4:	dc091fe3          	bnez	s2,1bc2 <__adddf3+0x376>
    1de8:	050e                	slli	a0,a0,0x3
    1dea:	01d71793          	slli	a5,a4,0x1d
    1dee:	810d                	srli	a0,a0,0x3
    1df0:	00f568b3          	or	a7,a0,a5
    1df4:	00375793          	srli	a5,a4,0x3
    1df8:	b3d1                	j	1bbc <__adddf3+0x370>
    1dfa:	0e088163          	beqz	a7,1edc <__adddf3+0x690>
    1dfe:	00361693          	slli	a3,a2,0x3
    1e02:	01d81793          	slli	a5,a6,0x1d
    1e06:	828d                	srli	a3,a3,0x3
    1e08:	00d7e8b3          	or	a7,a5,a3
    1e0c:	89f6                	mv	s3,t4
    1e0e:	00385793          	srli	a5,a6,0x3
    1e12:	bb91                	j	1b66 <__adddf3+0x31a>
    1e14:	41ff0933          	sub	s2,t5,t6
    1e18:	410707b3          	sub	a5,a4,a6
    1e1c:	012f3f33          	sltu	t5,t5,s2
    1e20:	41e78633          	sub	a2,a5,t5
    1e24:	4485                	li	s1,1
    1e26:	bcd1                	j	18fa <__adddf3+0xae>
    1e28:	050e                	slli	a0,a0,0x3
    1e2a:	01d71793          	slli	a5,a4,0x1d
    1e2e:	810d                	srli	a0,a0,0x3
    1e30:	00f568b3          	or	a7,a0,a5
    1e34:	84f2                	mv	s1,t3
    1e36:	00375793          	srli	a5,a4,0x3
    1e3a:	b315                	j	1b5e <__adddf3+0x312>
    1e3c:	050e                	slli	a0,a0,0x3
    1e3e:	01d71793          	slli	a5,a4,0x1d
    1e42:	810d                	srli	a0,a0,0x3
    1e44:	00a7e8b3          	or	a7,a5,a0
    1e48:	00375793          	srli	a5,a4,0x3
    1e4c:	bb29                	j	1b66 <__adddf3+0x31a>
    1e4e:	7ff00793          	li	a5,2047
    1e52:	d4f682e3          	beq	a3,a5,1b96 <__adddf3+0x34a>
    1e56:	01ff0933          	add	s2,t5,t6
    1e5a:	01e93633          	sltu	a2,s2,t5
    1e5e:	010707b3          	add	a5,a4,a6
    1e62:	97b2                	add	a5,a5,a2
    1e64:	01f79893          	slli	a7,a5,0x1f
    1e68:	00195913          	srli	s2,s2,0x1
    1e6c:	0128e933          	or	s2,a7,s2
    1e70:	0017d613          	srli	a2,a5,0x1
    1e74:	84b6                	mv	s1,a3
    1e76:	b9c1                	j	1b46 <__adddf3+0x2fa>
    1e78:	41ef8933          	sub	s2,t6,t5
    1e7c:	40e80733          	sub	a4,a6,a4
    1e80:	012fb633          	sltu	a2,t6,s2
    1e84:	40c70433          	sub	s0,a4,a2
    1e88:	89f6                	mv	s3,t4
    1e8a:	b449                	j	190c <__adddf3+0xc0>
    1e8c:	01e76933          	or	s2,a4,t5
    1e90:	01203933          	snez	s2,s2
    1e94:	bd01                	j	1ca4 <__adddf3+0x458>
    1e96:	fe058793          	addi	a5,a1,-32
    1e9a:	02000693          	li	a3,32
    1e9e:	00f757b3          	srl	a5,a4,a5
    1ea2:	00d58a63          	beq	a1,a3,1eb6 <__adddf3+0x66a>
    1ea6:	04000693          	li	a3,64
    1eaa:	40b685b3          	sub	a1,a3,a1
    1eae:	00b71733          	sll	a4,a4,a1
    1eb2:	00ef6f33          	or	t5,t5,a4
    1eb6:	01e03933          	snez	s2,t5
    1eba:	00f96933          	or	s2,s2,a5
    1ebe:	bd55                	j	1d72 <__adddf3+0x526>
    1ec0:	00361793          	slli	a5,a2,0x3
    1ec4:	838d                	srli	a5,a5,0x3
    1ec6:	01d81893          	slli	a7,a6,0x1d
    1eca:	0117e8b3          	or	a7,a5,a7
    1ece:	00385793          	srli	a5,a6,0x3
    1ed2:	b1ed                	j	1bbc <__adddf3+0x370>
    1ed4:	00c968b3          	or	a7,s2,a2
    1ed8:	c60897e3          	bnez	a7,1b46 <__adddf3+0x2fa>
    1edc:	4781                	li	a5,0
    1ede:	4981                	li	s3,0
    1ee0:	b159                	j	1b66 <__adddf3+0x31a>
    1ee2:	41ef8933          	sub	s2,t6,t5
    1ee6:	40e807b3          	sub	a5,a6,a4
    1eea:	012fb633          	sltu	a2,t6,s2
    1eee:	40c78633          	sub	a2,a5,a2
    1ef2:	89f6                	mv	s3,t4
    1ef4:	4485                	li	s1,1
    1ef6:	b411                	j	18fa <__adddf3+0xae>
    1ef8:	00361693          	slli	a3,a2,0x3
    1efc:	01d81793          	slli	a5,a6,0x1d
    1f00:	828d                	srli	a3,a3,0x3
    1f02:	00d7e8b3          	or	a7,a5,a3
    1f06:	00385793          	srli	a5,a6,0x3
    1f0a:	b9b1                	j	1b66 <__adddf3+0x31a>
    1f0c:	00361693          	slli	a3,a2,0x3
    1f10:	01d81793          	slli	a5,a6,0x1d
    1f14:	828d                	srli	a3,a3,0x3
    1f16:	00d7e8b3          	or	a7,a5,a3
    1f1a:	84aa                	mv	s1,a0
    1f1c:	00385793          	srli	a5,a6,0x3
    1f20:	b93d                	j	1b5e <__adddf3+0x312>
    1f22:	fe050793          	addi	a5,a0,-32
    1f26:	02000693          	li	a3,32
    1f2a:	00f757b3          	srl	a5,a4,a5
    1f2e:	00d50a63          	beq	a0,a3,1f42 <__adddf3+0x6f6>
    1f32:	04000693          	li	a3,64
    1f36:	40a68533          	sub	a0,a3,a0
    1f3a:	00a71733          	sll	a4,a4,a0
    1f3e:	00ef6f33          	or	t5,t5,a4
    1f42:	01e03933          	snez	s2,t5
    1f46:	00f96933          	or	s2,s2,a5
    1f4a:	bba9                	j	1ca4 <__adddf3+0x458>
    1f4c:	4581                	li	a1,0
    1f4e:	7ff00513          	li	a0,2047
    1f52:	000807b7          	lui	a5,0x80
    1f56:	bca9                	j	19b0 <__adddf3+0x164>
    1f58:	01ff0933          	add	s2,t5,t6
    1f5c:	010707b3          	add	a5,a4,a6
    1f60:	01f93633          	sltu	a2,s2,t6
    1f64:	963e                	add	a2,a2,a5
    1f66:	b375                	j	1d12 <__adddf3+0x4c6>
    1f68:	00361693          	slli	a3,a2,0x3
    1f6c:	01d81793          	slli	a5,a6,0x1d
    1f70:	828d                	srli	a3,a3,0x3
    1f72:	00d7e8b3          	or	a7,a5,a3
    1f76:	00385793          	srli	a5,a6,0x3
    1f7a:	b189                	j	1bbc <__adddf3+0x370>

00001f7c <__divdf3>:
    1f7c:	7139                	addi	sp,sp,-64
    1f7e:	0145d793          	srli	a5,a1,0x14
    1f82:	dc22                	sw	s0,56(sp)
    1f84:	d84a                	sw	s2,48(sp)
    1f86:	d256                	sw	s5,36(sp)
    1f88:	892a                	mv	s2,a0
    1f8a:	00c59413          	slli	s0,a1,0xc
    1f8e:	de06                	sw	ra,60(sp)
    1f90:	da26                	sw	s1,52(sp)
    1f92:	d64e                	sw	s3,44(sp)
    1f94:	d452                	sw	s4,40(sp)
    1f96:	d05a                	sw	s6,32(sp)
    1f98:	ce5e                	sw	s7,28(sp)
    1f9a:	7ff7f513          	andi	a0,a5,2047
    1f9e:	8031                	srli	s0,s0,0xc
    1fa0:	01f5da93          	srli	s5,a1,0x1f
    1fa4:	10050b63          	beqz	a0,20ba <__divdf3+0x13e>
    1fa8:	7ff00793          	li	a5,2047
    1fac:	14f50b63          	beq	a0,a5,2102 <__divdf3+0x186>
    1fb0:	01d95a13          	srli	s4,s2,0x1d
    1fb4:	040e                	slli	s0,s0,0x3
    1fb6:	008a6433          	or	s0,s4,s0
    1fba:	00800a37          	lui	s4,0x800
    1fbe:	01446a33          	or	s4,s0,s4
    1fc2:	00391b13          	slli	s6,s2,0x3
    1fc6:	c0150493          	addi	s1,a0,-1023
    1fca:	4401                	li	s0,0
    1fcc:	4b81                	li	s7,0
    1fce:	0146d813          	srli	a6,a3,0x14
    1fd2:	00c69913          	slli	s2,a3,0xc
    1fd6:	7ff87813          	andi	a6,a6,2047
    1fda:	88b2                	mv	a7,a2
    1fdc:	00c95913          	srli	s2,s2,0xc
    1fe0:	01f6d993          	srli	s3,a3,0x1f
    1fe4:	08080e63          	beqz	a6,2080 <__divdf3+0x104>
    1fe8:	7ff00793          	li	a5,2047
    1fec:	04f80063          	beq	a6,a5,202c <__divdf3+0xb0>
    1ff0:	01d65713          	srli	a4,a2,0x1d
    1ff4:	090e                	slli	s2,s2,0x3
    1ff6:	01276933          	or	s2,a4,s2
    1ffa:	c0180813          	addi	a6,a6,-1023 # ffc01 <_data_lma+0xfb63d>
    1ffe:	008007b7          	lui	a5,0x800
    2002:	00f96733          	or	a4,s2,a5
    2006:	00361893          	slli	a7,a2,0x3
    200a:	410484b3          	sub	s1,s1,a6
    200e:	4581                	li	a1,0
    2010:	47bd                	li	a5,15
    2012:	013ac833          	xor	a6,s5,s3
    2016:	1a87e463          	bltu	a5,s0,21be <__divdf3+0x242>
    201a:	00002797          	auipc	a5,0x2
    201e:	3ea78793          	addi	a5,a5,1002 # 4404 <OLED_F8x16+0x5f0>
    2022:	040a                	slli	s0,s0,0x2
    2024:	943e                	add	s0,s0,a5
    2026:	4010                	lw	a2,0(s0)
    2028:	963e                	add	a2,a2,a5
    202a:	8602                	jr	a2
    202c:	00c96733          	or	a4,s2,a2
    2030:	80148493          	addi	s1,s1,-2047
    2034:	10071263          	bnez	a4,2138 <__divdf3+0x1bc>
    2038:	00246413          	ori	s0,s0,2
    203c:	4881                	li	a7,0
    203e:	4589                	li	a1,2
    2040:	bfc1                	j	2010 <__divdf3+0x94>
    2042:	7ff00613          	li	a2,2047
    2046:	4781                	li	a5,0
    2048:	4701                	li	a4,0
    204a:	07b2                	slli	a5,a5,0xc
    204c:	50f2                	lw	ra,60(sp)
    204e:	5462                	lw	s0,56(sp)
    2050:	0652                	slli	a2,a2,0x14
    2052:	83b1                	srli	a5,a5,0xc
    2054:	087e                	slli	a6,a6,0x1f
    2056:	8fd1                	or	a5,a5,a2
    2058:	0107e7b3          	or	a5,a5,a6
    205c:	54d2                	lw	s1,52(sp)
    205e:	5942                	lw	s2,48(sp)
    2060:	59b2                	lw	s3,44(sp)
    2062:	5a22                	lw	s4,40(sp)
    2064:	5a92                	lw	s5,36(sp)
    2066:	5b02                	lw	s6,32(sp)
    2068:	4bf2                	lw	s7,28(sp)
    206a:	853a                	mv	a0,a4
    206c:	85be                	mv	a1,a5
    206e:	6121                	addi	sp,sp,64
    2070:	8082                	ret
    2072:	4801                	li	a6,0
    2074:	7ff00613          	li	a2,2047
    2078:	000807b7          	lui	a5,0x80
    207c:	4701                	li	a4,0
    207e:	b7f1                	j	204a <__divdf3+0xce>
    2080:	00c96733          	or	a4,s2,a2
    2084:	c74d                	beqz	a4,212e <__divdf3+0x1b2>
    2086:	30090863          	beqz	s2,2396 <__divdf3+0x41a>
    208a:	854a                	mv	a0,s2
    208c:	c432                	sw	a2,8(sp)
    208e:	3bd010ef          	jal	ra,3c4a <__clzsi2>
    2092:	4622                	lw	a2,8(sp)
    2094:	ff550713          	addi	a4,a0,-11
    2098:	47f5                	li	a5,29
    209a:	ff850693          	addi	a3,a0,-8
    209e:	8f99                	sub	a5,a5,a4
    20a0:	00d91933          	sll	s2,s2,a3
    20a4:	00f657b3          	srl	a5,a2,a5
    20a8:	0127e733          	or	a4,a5,s2
    20ac:	00d618b3          	sll	a7,a2,a3
    20b0:	9526                	add	a0,a0,s1
    20b2:	3f350493          	addi	s1,a0,1011
    20b6:	4581                	li	a1,0
    20b8:	bfa1                	j	2010 <__divdf3+0x94>
    20ba:	01246a33          	or	s4,s0,s2
    20be:	060a0363          	beqz	s4,2124 <__divdf3+0x1a8>
    20c2:	c636                	sw	a3,12(sp)
    20c4:	c432                	sw	a2,8(sp)
    20c6:	2a040663          	beqz	s0,2372 <__divdf3+0x3f6>
    20ca:	8522                	mv	a0,s0
    20cc:	37f010ef          	jal	ra,3c4a <__clzsi2>
    20d0:	4622                	lw	a2,8(sp)
    20d2:	46b2                	lw	a3,12(sp)
    20d4:	84aa                	mv	s1,a0
    20d6:	ff550713          	addi	a4,a0,-11
    20da:	4a75                	li	s4,29
    20dc:	ff848b13          	addi	s6,s1,-8
    20e0:	40ea0a33          	sub	s4,s4,a4
    20e4:	01641433          	sll	s0,s0,s6
    20e8:	01495a33          	srl	s4,s2,s4
    20ec:	008a6a33          	or	s4,s4,s0
    20f0:	01691b33          	sll	s6,s2,s6
    20f4:	c0d00513          	li	a0,-1011
    20f8:	409504b3          	sub	s1,a0,s1
    20fc:	4401                	li	s0,0
    20fe:	4b81                	li	s7,0
    2100:	b5f9                	j	1fce <__divdf3+0x52>
    2102:	01246a33          	or	s4,s0,s2
    2106:	000a1863          	bnez	s4,2116 <__divdf3+0x19a>
    210a:	4421                	li	s0,8
    210c:	4b01                	li	s6,0
    210e:	7ff00493          	li	s1,2047
    2112:	4b89                	li	s7,2
    2114:	bd6d                	j	1fce <__divdf3+0x52>
    2116:	8a22                	mv	s4,s0
    2118:	8b4a                	mv	s6,s2
    211a:	4431                	li	s0,12
    211c:	7ff00493          	li	s1,2047
    2120:	4b8d                	li	s7,3
    2122:	b575                	j	1fce <__divdf3+0x52>
    2124:	4411                	li	s0,4
    2126:	4b01                	li	s6,0
    2128:	4481                	li	s1,0
    212a:	4b85                	li	s7,1
    212c:	b54d                	j	1fce <__divdf3+0x52>
    212e:	00146413          	ori	s0,s0,1
    2132:	4881                	li	a7,0
    2134:	4585                	li	a1,1
    2136:	bde9                	j	2010 <__divdf3+0x94>
    2138:	00346413          	ori	s0,s0,3
    213c:	874a                	mv	a4,s2
    213e:	458d                	li	a1,3
    2140:	bdc1                	j	2010 <__divdf3+0x94>
    2142:	2e050a63          	beqz	a0,2436 <__divdf3+0x4ba>
    2146:	4785                	li	a5,1
    2148:	8f89                	sub	a5,a5,a0
    214a:	03800693          	li	a3,56
    214e:	32f6dd63          	bge	a3,a5,2488 <__divdf3+0x50c>
    2152:	4601                	li	a2,0
    2154:	4781                	li	a5,0
    2156:	4701                	li	a4,0
    2158:	bdcd                	j	204a <__divdf3+0xce>
    215a:	86ce                	mv	a3,s3
    215c:	4789                	li	a5,2
    215e:	3af58d63          	beq	a1,a5,2518 <__divdf3+0x59c>
    2162:	478d                	li	a5,3
    2164:	f0f587e3          	beq	a1,a5,2072 <__divdf3+0xf6>
    2168:	4785                	li	a5,1
    216a:	8836                	mv	a6,a3
    216c:	fef583e3          	beq	a1,a5,2152 <__divdf3+0x1d6>
    2170:	3ff48513          	addi	a0,s1,1023
    2174:	fca057e3          	blez	a0,2142 <__divdf3+0x1c6>
    2178:	0078f793          	andi	a5,a7,7
    217c:	28079663          	bnez	a5,2408 <__divdf3+0x48c>
    2180:	0038d693          	srli	a3,a7,0x3
    2184:	00771793          	slli	a5,a4,0x7
    2188:	0007d863          	bgez	a5,2198 <__divdf3+0x21c>
    218c:	ff0007b7          	lui	a5,0xff000
    2190:	17fd                	addi	a5,a5,-1
    2192:	8f7d                	and	a4,a4,a5
    2194:	40048513          	addi	a0,s1,1024
    2198:	7fe00793          	li	a5,2046
    219c:	eaa7c3e3          	blt	a5,a0,2042 <__divdf3+0xc6>
    21a0:	01d71613          	slli	a2,a4,0x1d
    21a4:	00971793          	slli	a5,a4,0x9
    21a8:	83b1                	srli	a5,a5,0xc
    21aa:	00d66733          	or	a4,a2,a3
    21ae:	7ff57613          	andi	a2,a0,2047
    21b2:	bd61                	j	204a <__divdf3+0xce>
    21b4:	86d6                	mv	a3,s5
    21b6:	8752                	mv	a4,s4
    21b8:	88da                	mv	a7,s6
    21ba:	85de                	mv	a1,s7
    21bc:	b745                	j	215c <__divdf3+0x1e0>
    21be:	23476163          	bltu	a4,s4,23e0 <__divdf3+0x464>
    21c2:	20ea0d63          	beq	s4,a4,23dc <__divdf3+0x460>
    21c6:	86da                	mv	a3,s6
    21c8:	14fd                	addi	s1,s1,-1
    21ca:	8452                	mv	s0,s4
    21cc:	4b01                	li	s6,0
    21ce:	00871793          	slli	a5,a4,0x8
    21d2:	0188d313          	srli	t1,a7,0x18
    21d6:	00f36333          	or	t1,t1,a5
    21da:	01035e93          	srli	t4,t1,0x10
    21de:	03d457b3          	divu	a5,s0,t4
    21e2:	01031f13          	slli	t5,t1,0x10
    21e6:	010f5f13          	srli	t5,t5,0x10
    21ea:	0106d593          	srli	a1,a3,0x10
    21ee:	00889e13          	slli	t3,a7,0x8
    21f2:	03d47433          	remu	s0,s0,t4
    21f6:	02ff0733          	mul	a4,t5,a5
    21fa:	0442                	slli	s0,s0,0x10
    21fc:	8dc1                	or	a1,a1,s0
    21fe:	00e5fb63          	bgeu	a1,a4,2214 <__divdf3+0x298>
    2202:	959a                	add	a1,a1,t1
    2204:	fff78613          	addi	a2,a5,-1 # feffffff <_eusrstack+0xdeffafff>
    2208:	2665ee63          	bltu	a1,t1,2484 <__divdf3+0x508>
    220c:	26e5fc63          	bgeu	a1,a4,2484 <__divdf3+0x508>
    2210:	17f9                	addi	a5,a5,-2
    2212:	959a                	add	a1,a1,t1
    2214:	8d99                	sub	a1,a1,a4
    2216:	03d5d733          	divu	a4,a1,t4
    221a:	06c2                	slli	a3,a3,0x10
    221c:	82c1                	srli	a3,a3,0x10
    221e:	03d5f5b3          	remu	a1,a1,t4
    2222:	02ef0633          	mul	a2,t5,a4
    2226:	05c2                	slli	a1,a1,0x10
    2228:	8dd5                	or	a1,a1,a3
    222a:	00c5fb63          	bgeu	a1,a2,2240 <__divdf3+0x2c4>
    222e:	959a                	add	a1,a1,t1
    2230:	fff70693          	addi	a3,a4,-1 # 7fffff <_data_lma+0x7fba3b>
    2234:	2465e663          	bltu	a1,t1,2480 <__divdf3+0x504>
    2238:	24c5f463          	bgeu	a1,a2,2480 <__divdf3+0x504>
    223c:	1779                	addi	a4,a4,-2
    223e:	959a                	add	a1,a1,t1
    2240:	07c2                	slli	a5,a5,0x10
    2242:	6441                	lui	s0,0x10
    2244:	8f5d                	or	a4,a4,a5
    2246:	fff40793          	addi	a5,s0,-1 # ffff <_data_lma+0xba3b>
    224a:	00f77533          	and	a0,a4,a5
    224e:	01075893          	srli	a7,a4,0x10
    2252:	010e5f93          	srli	t6,t3,0x10
    2256:	00fe77b3          	and	a5,t3,a5
    225a:	02f502b3          	mul	t0,a0,a5
    225e:	40c586b3          	sub	a3,a1,a2
    2262:	02f883b3          	mul	t2,a7,a5
    2266:	0102d593          	srli	a1,t0,0x10
    226a:	02af8633          	mul	a2,t6,a0
    226e:	961e                	add	a2,a2,t2
    2270:	962e                	add	a2,a2,a1
    2272:	03f88533          	mul	a0,a7,t6
    2276:	00767363          	bgeu	a2,t2,227c <__divdf3+0x300>
    227a:	9522                	add	a0,a0,s0
    227c:	68c1                	lui	a7,0x10
    227e:	18fd                	addi	a7,a7,-1
    2280:	01065593          	srli	a1,a2,0x10
    2284:	01167633          	and	a2,a2,a7
    2288:	0642                	slli	a2,a2,0x10
    228a:	0112f8b3          	and	a7,t0,a7
    228e:	95aa                	add	a1,a1,a0
    2290:	9646                	add	a2,a2,a7
    2292:	12b6e663          	bltu	a3,a1,23be <__divdf3+0x442>
    2296:	12b68263          	beq	a3,a1,23ba <__divdf3+0x43e>
    229a:	40cb0633          	sub	a2,s6,a2
    229e:	8e8d                	sub	a3,a3,a1
    22a0:	00cb3b33          	sltu	s6,s6,a2
    22a4:	41668b33          	sub	s6,a3,s6
    22a8:	3ff48513          	addi	a0,s1,1023
    22ac:	17630c63          	beq	t1,s6,2424 <__divdf3+0x4a8>
    22b0:	03db58b3          	divu	a7,s6,t4
    22b4:	01065593          	srli	a1,a2,0x10
    22b8:	03db7b33          	remu	s6,s6,t4
    22bc:	031f06b3          	mul	a3,t5,a7
    22c0:	0b42                	slli	s6,s6,0x10
    22c2:	0165eb33          	or	s6,a1,s6
    22c6:	00db7b63          	bgeu	s6,a3,22dc <__divdf3+0x360>
    22ca:	9b1a                	add	s6,s6,t1
    22cc:	fff88593          	addi	a1,a7,-1 # ffff <_data_lma+0xba3b>
    22d0:	206b6d63          	bltu	s6,t1,24ea <__divdf3+0x56e>
    22d4:	20db7b63          	bgeu	s6,a3,24ea <__divdf3+0x56e>
    22d8:	18f9                	addi	a7,a7,-2
    22da:	9b1a                	add	s6,s6,t1
    22dc:	40db0b33          	sub	s6,s6,a3
    22e0:	03db56b3          	divu	a3,s6,t4
    22e4:	0642                	slli	a2,a2,0x10
    22e6:	8241                	srli	a2,a2,0x10
    22e8:	03db7b33          	remu	s6,s6,t4
    22ec:	02df0f33          	mul	t5,t5,a3
    22f0:	0b42                	slli	s6,s6,0x10
    22f2:	01666633          	or	a2,a2,s6
    22f6:	01e67b63          	bgeu	a2,t5,230c <__divdf3+0x390>
    22fa:	961a                	add	a2,a2,t1
    22fc:	fff68593          	addi	a1,a3,-1 # 7fffff <_data_lma+0x7fba3b>
    2300:	1e666763          	bltu	a2,t1,24ee <__divdf3+0x572>
    2304:	1fe67563          	bgeu	a2,t5,24ee <__divdf3+0x572>
    2308:	16f9                	addi	a3,a3,-2
    230a:	961a                	add	a2,a2,t1
    230c:	08c2                	slli	a7,a7,0x10
    230e:	00d8e8b3          	or	a7,a7,a3
    2312:	01089593          	slli	a1,a7,0x10
    2316:	0108d293          	srli	t0,a7,0x10
    231a:	81c1                	srli	a1,a1,0x10
    231c:	02f58eb3          	mul	t4,a1,a5
    2320:	41e60633          	sub	a2,a2,t5
    2324:	02bf85b3          	mul	a1,t6,a1
    2328:	010ed693          	srli	a3,t4,0x10
    232c:	02f287b3          	mul	a5,t0,a5
    2330:	95be                	add	a1,a1,a5
    2332:	96ae                	add	a3,a3,a1
    2334:	025f8fb3          	mul	t6,t6,t0
    2338:	00f6f463          	bgeu	a3,a5,2340 <__divdf3+0x3c4>
    233c:	67c1                	lui	a5,0x10
    233e:	9fbe                	add	t6,t6,a5
    2340:	65c1                	lui	a1,0x10
    2342:	15fd                	addi	a1,a1,-1
    2344:	0106d793          	srli	a5,a3,0x10
    2348:	8eed                	and	a3,a3,a1
    234a:	06c2                	slli	a3,a3,0x10
    234c:	00befeb3          	and	t4,t4,a1
    2350:	9fbe                	add	t6,t6,a5
    2352:	96f6                	add	a3,a3,t4
    2354:	09f67f63          	bgeu	a2,t6,23f2 <__divdf3+0x476>
    2358:	961a                	add	a2,a2,t1
    235a:	fff88793          	addi	a5,a7,-1
    235e:	1a666963          	bltu	a2,t1,2510 <__divdf3+0x594>
    2362:	19f66863          	bltu	a2,t6,24f2 <__divdf3+0x576>
    2366:	1bf60f63          	beq	a2,t6,2524 <__divdf3+0x5a8>
    236a:	88be                	mv	a7,a5
    236c:	0018e893          	ori	a7,a7,1
    2370:	b511                	j	2174 <__divdf3+0x1f8>
    2372:	854a                	mv	a0,s2
    2374:	0d7010ef          	jal	ra,3c4a <__clzsi2>
    2378:	01550713          	addi	a4,a0,21
    237c:	45f1                	li	a1,28
    237e:	02050493          	addi	s1,a0,32
    2382:	4622                	lw	a2,8(sp)
    2384:	46b2                	lw	a3,12(sp)
    2386:	d4e5dae3          	bge	a1,a4,20da <__divdf3+0x15e>
    238a:	ff850413          	addi	s0,a0,-8
    238e:	00891a33          	sll	s4,s2,s0
    2392:	4b01                	li	s6,0
    2394:	b385                	j	20f4 <__divdf3+0x178>
    2396:	8532                	mv	a0,a2
    2398:	c432                	sw	a2,8(sp)
    239a:	0b1010ef          	jal	ra,3c4a <__clzsi2>
    239e:	01550713          	addi	a4,a0,21
    23a2:	46f1                	li	a3,28
    23a4:	87aa                	mv	a5,a0
    23a6:	4622                	lw	a2,8(sp)
    23a8:	02050513          	addi	a0,a0,32
    23ac:	cee6d6e3          	bge	a3,a4,2098 <__divdf3+0x11c>
    23b0:	17e1                	addi	a5,a5,-8
    23b2:	00f61733          	sll	a4,a2,a5
    23b6:	4881                	li	a7,0
    23b8:	b9e5                	j	20b0 <__divdf3+0x134>
    23ba:	eecb70e3          	bgeu	s6,a2,229a <__divdf3+0x31e>
    23be:	9b72                	add	s6,s6,t3
    23c0:	01cb3533          	sltu	a0,s6,t3
    23c4:	951a                	add	a0,a0,t1
    23c6:	96aa                	add	a3,a3,a0
    23c8:	fff70513          	addi	a0,a4,-1
    23cc:	02d37863          	bgeu	t1,a3,23fc <__divdf3+0x480>
    23d0:	10b6e663          	bltu	a3,a1,24dc <__divdf3+0x560>
    23d4:	10d58263          	beq	a1,a3,24d8 <__divdf3+0x55c>
    23d8:	872a                	mv	a4,a0
    23da:	b5c1                	j	229a <__divdf3+0x31e>
    23dc:	df1b65e3          	bltu	s6,a7,21c6 <__divdf3+0x24a>
    23e0:	001b5593          	srli	a1,s6,0x1
    23e4:	01fa1693          	slli	a3,s4,0x1f
    23e8:	001a5413          	srli	s0,s4,0x1
    23ec:	8ecd                	or	a3,a3,a1
    23ee:	0b7e                	slli	s6,s6,0x1f
    23f0:	bbf9                	j	21ce <__divdf3+0x252>
    23f2:	f7f61de3          	bne	a2,t6,236c <__divdf3+0x3f0>
    23f6:	d6068fe3          	beqz	a3,2174 <__divdf3+0x1f8>
    23fa:	bfb9                	j	2358 <__divdf3+0x3dc>
    23fc:	fcd31ee3          	bne	t1,a3,23d8 <__divdf3+0x45c>
    2400:	fdcb78e3          	bgeu	s6,t3,23d0 <__divdf3+0x454>
    2404:	872a                	mv	a4,a0
    2406:	bd51                	j	229a <__divdf3+0x31e>
    2408:	00f8f793          	andi	a5,a7,15
    240c:	4691                	li	a3,4
    240e:	d6d789e3          	beq	a5,a3,2180 <__divdf3+0x204>
    2412:	ffc8b793          	sltiu	a5,a7,-4
    2416:	00488693          	addi	a3,a7,4
    241a:	0017c793          	xori	a5,a5,1
    241e:	828d                	srli	a3,a3,0x3
    2420:	973e                	add	a4,a4,a5
    2422:	b38d                	j	2184 <__divdf3+0x208>
    2424:	4681                	li	a3,0
    2426:	4785                	li	a5,1
    2428:	fea04ce3          	bgtz	a0,2420 <__divdf3+0x4a4>
    242c:	58fd                	li	a7,-1
    242e:	d0051ce3          	bnez	a0,2146 <__divdf3+0x1ca>
    2432:	c0100493          	li	s1,-1023
    2436:	4785                	li	a5,1
    2438:	41e48513          	addi	a0,s1,1054
    243c:	00a716b3          	sll	a3,a4,a0
    2440:	00f8d633          	srl	a2,a7,a5
    2444:	00a89533          	sll	a0,a7,a0
    2448:	8ed1                	or	a3,a3,a2
    244a:	00a03533          	snez	a0,a0
    244e:	8ec9                	or	a3,a3,a0
    2450:	0076f613          	andi	a2,a3,7
    2454:	00f75733          	srl	a4,a4,a5
    2458:	ce01                	beqz	a2,2470 <__divdf3+0x4f4>
    245a:	00f6f793          	andi	a5,a3,15
    245e:	4611                	li	a2,4
    2460:	00c78863          	beq	a5,a2,2470 <__divdf3+0x4f4>
    2464:	00468793          	addi	a5,a3,4
    2468:	00d7b6b3          	sltu	a3,a5,a3
    246c:	9736                	add	a4,a4,a3
    246e:	86be                	mv	a3,a5
    2470:	00871793          	slli	a5,a4,0x8
    2474:	0407d863          	bgez	a5,24c4 <__divdf3+0x548>
    2478:	4605                	li	a2,1
    247a:	4781                	li	a5,0
    247c:	4701                	li	a4,0
    247e:	b6f1                	j	204a <__divdf3+0xce>
    2480:	8736                	mv	a4,a3
    2482:	bb7d                	j	2240 <__divdf3+0x2c4>
    2484:	87b2                	mv	a5,a2
    2486:	b379                	j	2214 <__divdf3+0x298>
    2488:	46fd                	li	a3,31
    248a:	faf6d7e3          	bge	a3,a5,2438 <__divdf3+0x4bc>
    248e:	5605                	li	a2,-31
    2490:	8e09                	sub	a2,a2,a0
    2492:	02000693          	li	a3,32
    2496:	00c75633          	srl	a2,a4,a2
    249a:	00d78863          	beq	a5,a3,24aa <__divdf3+0x52e>
    249e:	43e48793          	addi	a5,s1,1086
    24a2:	00f717b3          	sll	a5,a4,a5
    24a6:	00f8e8b3          	or	a7,a7,a5
    24aa:	011036b3          	snez	a3,a7
    24ae:	8ed1                	or	a3,a3,a2
    24b0:	0076f613          	andi	a2,a3,7
    24b4:	4781                	li	a5,0
    24b6:	ce01                	beqz	a2,24ce <__divdf3+0x552>
    24b8:	00f6f793          	andi	a5,a3,15
    24bc:	4611                	li	a2,4
    24be:	4701                	li	a4,0
    24c0:	fac792e3          	bne	a5,a2,2464 <__divdf3+0x4e8>
    24c4:	00971793          	slli	a5,a4,0x9
    24c8:	01d71613          	slli	a2,a4,0x1d
    24cc:	83b1                	srli	a5,a5,0xc
    24ce:	0036d713          	srli	a4,a3,0x3
    24d2:	8f51                	or	a4,a4,a2
    24d4:	4601                	li	a2,0
    24d6:	be95                	j	204a <__divdf3+0xce>
    24d8:	f0cb70e3          	bgeu	s6,a2,23d8 <__divdf3+0x45c>
    24dc:	9b72                	add	s6,s6,t3
    24de:	01cb3533          	sltu	a0,s6,t3
    24e2:	951a                	add	a0,a0,t1
    24e4:	1779                	addi	a4,a4,-2
    24e6:	96aa                	add	a3,a3,a0
    24e8:	bb4d                	j	229a <__divdf3+0x31e>
    24ea:	88ae                	mv	a7,a1
    24ec:	bbc5                	j	22dc <__divdf3+0x360>
    24ee:	86ae                	mv	a3,a1
    24f0:	bd31                	j	230c <__divdf3+0x390>
    24f2:	001e1793          	slli	a5,t3,0x1
    24f6:	01c7be33          	sltu	t3,a5,t3
    24fa:	9372                	add	t1,t1,t3
    24fc:	961a                	add	a2,a2,t1
    24fe:	18f9                	addi	a7,a7,-2
    2500:	8e3e                	mv	t3,a5
    2502:	e7f615e3          	bne	a2,t6,236c <__divdf3+0x3f0>
    2506:	c6de07e3          	beq	t3,a3,2174 <__divdf3+0x1f8>
    250a:	0018e893          	ori	a7,a7,1
    250e:	b19d                	j	2174 <__divdf3+0x1f8>
    2510:	88be                	mv	a7,a5
    2512:	fff60ae3          	beq	a2,t6,2506 <__divdf3+0x58a>
    2516:	bd99                	j	236c <__divdf3+0x3f0>
    2518:	8836                	mv	a6,a3
    251a:	7ff00613          	li	a2,2047
    251e:	4781                	li	a5,0
    2520:	4701                	li	a4,0
    2522:	b625                	j	204a <__divdf3+0xce>
    2524:	fcde67e3          	bltu	t3,a3,24f2 <__divdf3+0x576>
    2528:	88be                	mv	a7,a5
    252a:	fede10e3          	bne	t3,a3,250a <__divdf3+0x58e>
    252e:	b199                	j	2174 <__divdf3+0x1f8>

00002530 <__gedf2>:
    2530:	0145d713          	srli	a4,a1,0x14
    2534:	001007b7          	lui	a5,0x100
    2538:	17fd                	addi	a5,a5,-1
    253a:	0146d813          	srli	a6,a3,0x14
    253e:	7ff77713          	andi	a4,a4,2047
    2542:	7ff00893          	li	a7,2047
    2546:	00b7f333          	and	t1,a5,a1
    254a:	8e2a                	mv	t3,a0
    254c:	8ff5                	and	a5,a5,a3
    254e:	81fd                	srli	a1,a1,0x1f
    2550:	8eb2                	mv	t4,a2
    2552:	7ff87813          	andi	a6,a6,2047
    2556:	82fd                	srli	a3,a3,0x1f
    2558:	03170863          	beq	a4,a7,2588 <__gedf2+0x58>
    255c:	03180063          	beq	a6,a7,257c <__gedf2+0x4c>
    2560:	eb0d                	bnez	a4,2592 <__gedf2+0x62>
    2562:	00a368b3          	or	a7,t1,a0
    2566:	00081463          	bnez	a6,256e <__gedf2+0x3e>
    256a:	8e5d                	or	a2,a2,a5
    256c:	ca29                	beqz	a2,25be <__gedf2+0x8e>
    256e:	04088563          	beqz	a7,25b8 <__gedf2+0x88>
    2572:	02d58863          	beq	a1,a3,25a2 <__gedf2+0x72>
    2576:	4505                	li	a0,1
    2578:	ed95                	bnez	a1,25b4 <__gedf2+0x84>
    257a:	8082                	ret
    257c:	00c7e8b3          	or	a7,a5,a2
    2580:	fe0880e3          	beqz	a7,2560 <__gedf2+0x30>
    2584:	5579                	li	a0,-2
    2586:	8082                	ret
    2588:	00a36533          	or	a0,t1,a0
    258c:	fd65                	bnez	a0,2584 <__gedf2+0x54>
    258e:	02e80c63          	beq	a6,a4,25c6 <__gedf2+0x96>
    2592:	00081463          	bnez	a6,259a <__gedf2+0x6a>
    2596:	8e5d                	or	a2,a2,a5
    2598:	de79                	beqz	a2,2576 <__gedf2+0x46>
    259a:	fcd59ee3          	bne	a1,a3,2576 <__gedf2+0x46>
    259e:	fce84ce3          	blt	a6,a4,2576 <__gedf2+0x46>
    25a2:	01074863          	blt	a4,a6,25b2 <__gedf2+0x82>
    25a6:	fc67e8e3          	bltu	a5,t1,2576 <__gedf2+0x46>
    25aa:	02f30363          	beq	t1,a5,25d0 <__gedf2+0xa0>
    25ae:	00f37f63          	bgeu	t1,a5,25cc <__gedf2+0x9c>
    25b2:	e581                	bnez	a1,25ba <__gedf2+0x8a>
    25b4:	557d                	li	a0,-1
    25b6:	8082                	ret
    25b8:	def5                	beqz	a3,25b4 <__gedf2+0x84>
    25ba:	4505                	li	a0,1
    25bc:	8082                	ret
    25be:	4501                	li	a0,0
    25c0:	fa089be3          	bnez	a7,2576 <__gedf2+0x46>
    25c4:	8082                	ret
    25c6:	8e5d                	or	a2,a2,a5
    25c8:	da69                	beqz	a2,259a <__gedf2+0x6a>
    25ca:	bf6d                	j	2584 <__gedf2+0x54>
    25cc:	4501                	li	a0,0
    25ce:	8082                	ret
    25d0:	fbcee3e3          	bltu	t4,t3,2576 <__gedf2+0x46>
    25d4:	4501                	li	a0,0
    25d6:	fbde72e3          	bgeu	t3,t4,257a <__gedf2+0x4a>
    25da:	f1e5                	bnez	a1,25ba <__gedf2+0x8a>
    25dc:	bfe1                	j	25b4 <__gedf2+0x84>

000025de <__ledf2>:
    25de:	0145d713          	srli	a4,a1,0x14
    25e2:	001007b7          	lui	a5,0x100
    25e6:	17fd                	addi	a5,a5,-1
    25e8:	0146d813          	srli	a6,a3,0x14
    25ec:	7ff77713          	andi	a4,a4,2047
    25f0:	7ff00893          	li	a7,2047
    25f4:	00b7fe33          	and	t3,a5,a1
    25f8:	8eaa                	mv	t4,a0
    25fa:	8ff5                	and	a5,a5,a3
    25fc:	81fd                	srli	a1,a1,0x1f
    25fe:	8f32                	mv	t5,a2
    2600:	7ff87813          	andi	a6,a6,2047
    2604:	82fd                	srli	a3,a3,0x1f
    2606:	03170e63          	beq	a4,a7,2642 <__ledf2+0x64>
    260a:	01180d63          	beq	a6,a7,2624 <__ledf2+0x46>
    260e:	e329                	bnez	a4,2650 <__ledf2+0x72>
    2610:	00ae68b3          	or	a7,t3,a0
    2614:	00081f63          	bnez	a6,2632 <__ledf2+0x54>
    2618:	8e5d                	or	a2,a2,a5
    261a:	ee01                	bnez	a2,2632 <__ledf2+0x54>
    261c:	4301                	li	t1,0
    261e:	04088c63          	beqz	a7,2676 <__ledf2+0x98>
    2622:	a821                	j	263a <__ledf2+0x5c>
    2624:	00c7e8b3          	or	a7,a5,a2
    2628:	4309                	li	t1,2
    262a:	04089663          	bnez	a7,2676 <__ledf2+0x98>
    262e:	d36d                	beqz	a4,2610 <__ledf2+0x32>
    2630:	a005                	j	2650 <__ledf2+0x72>
    2632:	04088463          	beqz	a7,267a <__ledf2+0x9c>
    2636:	02d58563          	beq	a1,a3,2660 <__ledf2+0x82>
    263a:	4305                	li	t1,1
    263c:	cd8d                	beqz	a1,2676 <__ledf2+0x98>
    263e:	537d                	li	t1,-1
    2640:	a81d                	j	2676 <__ledf2+0x98>
    2642:	00ae68b3          	or	a7,t3,a0
    2646:	4309                	li	t1,2
    2648:	02089763          	bnez	a7,2676 <__ledf2+0x98>
    264c:	02e80a63          	beq	a6,a4,2680 <__ledf2+0xa2>
    2650:	00081463          	bnez	a6,2658 <__ledf2+0x7a>
    2654:	8e5d                	or	a2,a2,a5
    2656:	d275                	beqz	a2,263a <__ledf2+0x5c>
    2658:	fed591e3          	bne	a1,a3,263a <__ledf2+0x5c>
    265c:	fce84fe3          	blt	a6,a4,263a <__ledf2+0x5c>
    2660:	01074963          	blt	a4,a6,2672 <__ledf2+0x94>
    2664:	fdc7ebe3          	bltu	a5,t3,263a <__ledf2+0x5c>
    2668:	00fe0f63          	beq	t3,a5,2686 <__ledf2+0xa8>
    266c:	4301                	li	t1,0
    266e:	00fe7463          	bgeu	t3,a5,2676 <__ledf2+0x98>
    2672:	d5f1                	beqz	a1,263e <__ledf2+0x60>
    2674:	4305                	li	t1,1
    2676:	851a                	mv	a0,t1
    2678:	8082                	ret
    267a:	feed                	bnez	a3,2674 <__ledf2+0x96>
    267c:	537d                	li	t1,-1
    267e:	bfe5                	j	2676 <__ledf2+0x98>
    2680:	8e5d                	or	a2,a2,a5
    2682:	da79                	beqz	a2,2658 <__ledf2+0x7a>
    2684:	bfcd                	j	2676 <__ledf2+0x98>
    2686:	fbdf6ae3          	bltu	t5,t4,263a <__ledf2+0x5c>
    268a:	4301                	li	t1,0
    268c:	ffeef5e3          	bgeu	t4,t5,2676 <__ledf2+0x98>
    2690:	f1f5                	bnez	a1,2674 <__ledf2+0x96>
    2692:	b775                	j	263e <__ledf2+0x60>

00002694 <__muldf3>:
    2694:	7139                	addi	sp,sp,-64
    2696:	d84a                	sw	s2,48(sp)
    2698:	0145d913          	srli	s2,a1,0x14
    269c:	d64e                	sw	s3,44(sp)
    269e:	d452                	sw	s4,40(sp)
    26a0:	d256                	sw	s5,36(sp)
    26a2:	00c59993          	slli	s3,a1,0xc
    26a6:	de06                	sw	ra,60(sp)
    26a8:	dc22                	sw	s0,56(sp)
    26aa:	da26                	sw	s1,52(sp)
    26ac:	d05a                	sw	s6,32(sp)
    26ae:	ce5e                	sw	s7,28(sp)
    26b0:	7ff97913          	andi	s2,s2,2047
    26b4:	8a2a                	mv	s4,a0
    26b6:	00c9d993          	srli	s3,s3,0xc
    26ba:	01f5da93          	srli	s5,a1,0x1f
    26be:	0e090d63          	beqz	s2,27b8 <__muldf3+0x124>
    26c2:	7ff00793          	li	a5,2047
    26c6:	18f90663          	beq	s2,a5,2852 <__muldf3+0x1be>
    26ca:	01d55413          	srli	s0,a0,0x1d
    26ce:	098e                	slli	s3,s3,0x3
    26d0:	013469b3          	or	s3,s0,s3
    26d4:	00800437          	lui	s0,0x800
    26d8:	0089e433          	or	s0,s3,s0
    26dc:	00351493          	slli	s1,a0,0x3
    26e0:	c0190913          	addi	s2,s2,-1023
    26e4:	4981                	li	s3,0
    26e6:	4b81                	li	s7,0
    26e8:	0146d713          	srli	a4,a3,0x14
    26ec:	00c69a13          	slli	s4,a3,0xc
    26f0:	7ff77713          	andi	a4,a4,2047
    26f4:	85b2                	mv	a1,a2
    26f6:	00ca5a13          	srli	s4,s4,0xc
    26fa:	01f6db13          	srli	s6,a3,0x1f
    26fe:	10070b63          	beqz	a4,2814 <__muldf3+0x180>
    2702:	7ff00793          	li	a5,2047
    2706:	04f70363          	beq	a4,a5,274c <__muldf3+0xb8>
    270a:	01d65793          	srli	a5,a2,0x1d
    270e:	0a0e                	slli	s4,s4,0x3
    2710:	0147ea33          	or	s4,a5,s4
    2714:	c0170713          	addi	a4,a4,-1023
    2718:	008007b7          	lui	a5,0x800
    271c:	00fa67b3          	or	a5,s4,a5
    2720:	00361593          	slli	a1,a2,0x3
    2724:	993a                	add	s2,s2,a4
    2726:	4881                	li	a7,0
    2728:	016ac733          	xor	a4,s5,s6
    272c:	46bd                	li	a3,15
    272e:	853a                	mv	a0,a4
    2730:	00190813          	addi	a6,s2,1
    2734:	1736e863          	bltu	a3,s3,28a4 <__muldf3+0x210>
    2738:	00002617          	auipc	a2,0x2
    273c:	d0c60613          	addi	a2,a2,-756 # 4444 <OLED_F8x16+0x630>
    2740:	098a                	slli	s3,s3,0x2
    2742:	99b2                	add	s3,s3,a2
    2744:	0009a683          	lw	a3,0(s3)
    2748:	96b2                	add	a3,a3,a2
    274a:	8682                	jr	a3
    274c:	00ca67b3          	or	a5,s4,a2
    2750:	7ff90913          	addi	s2,s2,2047
    2754:	12079963          	bnez	a5,2886 <__muldf3+0x1f2>
    2758:	0029e993          	ori	s3,s3,2
    275c:	4581                	li	a1,0
    275e:	4889                	li	a7,2
    2760:	b7e1                	j	2728 <__muldf3+0x94>
    2762:	4701                	li	a4,0
    2764:	7ff00793          	li	a5,2047
    2768:	00080437          	lui	s0,0x80
    276c:	4481                	li	s1,0
    276e:	0432                	slli	s0,s0,0xc
    2770:	07d2                	slli	a5,a5,0x14
    2772:	8031                	srli	s0,s0,0xc
    2774:	077e                	slli	a4,a4,0x1f
    2776:	8c5d                	or	s0,s0,a5
    2778:	8c59                	or	s0,s0,a4
    277a:	85a2                	mv	a1,s0
    277c:	50f2                	lw	ra,60(sp)
    277e:	5462                	lw	s0,56(sp)
    2780:	8526                	mv	a0,s1
    2782:	5942                	lw	s2,48(sp)
    2784:	54d2                	lw	s1,52(sp)
    2786:	59b2                	lw	s3,44(sp)
    2788:	5a22                	lw	s4,40(sp)
    278a:	5a92                	lw	s5,36(sp)
    278c:	5b02                	lw	s6,32(sp)
    278e:	4bf2                	lw	s7,28(sp)
    2790:	6121                	addi	sp,sp,64
    2792:	8082                	ret
    2794:	855a                	mv	a0,s6
    2796:	843e                	mv	s0,a5
    2798:	84ae                	mv	s1,a1
    279a:	8bc6                	mv	s7,a7
    279c:	4789                	li	a5,2
    279e:	0efb8d63          	beq	s7,a5,2898 <__muldf3+0x204>
    27a2:	478d                	li	a5,3
    27a4:	fafb8fe3          	beq	s7,a5,2762 <__muldf3+0xce>
    27a8:	4785                	li	a5,1
    27aa:	872a                	mv	a4,a0
    27ac:	38fb9e63          	bne	s7,a5,2b48 <__muldf3+0x4b4>
    27b0:	4781                	li	a5,0
    27b2:	4401                	li	s0,0
    27b4:	4481                	li	s1,0
    27b6:	bf65                	j	276e <__muldf3+0xda>
    27b8:	00a9e433          	or	s0,s3,a0
    27bc:	c061                	beqz	s0,287c <__muldf3+0x1e8>
    27be:	c636                	sw	a3,12(sp)
    27c0:	c432                	sw	a2,8(sp)
    27c2:	2a098c63          	beqz	s3,2a7a <__muldf3+0x3e6>
    27c6:	854e                	mv	a0,s3
    27c8:	482010ef          	jal	ra,3c4a <__clzsi2>
    27cc:	4622                	lw	a2,8(sp)
    27ce:	46b2                	lw	a3,12(sp)
    27d0:	87aa                	mv	a5,a0
    27d2:	ff550713          	addi	a4,a0,-11
    27d6:	4475                	li	s0,29
    27d8:	ff878493          	addi	s1,a5,-8 # 7ffff8 <_data_lma+0x7fba34>
    27dc:	8c19                	sub	s0,s0,a4
    27de:	009999b3          	sll	s3,s3,s1
    27e2:	008a5433          	srl	s0,s4,s0
    27e6:	01346433          	or	s0,s0,s3
    27ea:	009a14b3          	sll	s1,s4,s1
    27ee:	0146d713          	srli	a4,a3,0x14
    27f2:	c0d00913          	li	s2,-1011
    27f6:	00c69a13          	slli	s4,a3,0xc
    27fa:	7ff77713          	andi	a4,a4,2047
    27fe:	40f90933          	sub	s2,s2,a5
    2802:	4981                	li	s3,0
    2804:	4b81                	li	s7,0
    2806:	85b2                	mv	a1,a2
    2808:	00ca5a13          	srli	s4,s4,0xc
    280c:	01f6db13          	srli	s6,a3,0x1f
    2810:	ee0719e3          	bnez	a4,2702 <__muldf3+0x6e>
    2814:	00ca67b3          	or	a5,s4,a2
    2818:	c7b1                	beqz	a5,2864 <__muldf3+0x1d0>
    281a:	220a0f63          	beqz	s4,2a58 <__muldf3+0x3c4>
    281e:	8552                	mv	a0,s4
    2820:	c432                	sw	a2,8(sp)
    2822:	428010ef          	jal	ra,3c4a <__clzsi2>
    2826:	4622                	lw	a2,8(sp)
    2828:	872a                	mv	a4,a0
    282a:	ff550693          	addi	a3,a0,-11
    282e:	47f5                	li	a5,29
    2830:	ff870593          	addi	a1,a4,-8
    2834:	8f95                	sub	a5,a5,a3
    2836:	00ba1a33          	sll	s4,s4,a1
    283a:	00f657b3          	srl	a5,a2,a5
    283e:	0147e7b3          	or	a5,a5,s4
    2842:	00b615b3          	sll	a1,a2,a1
    2846:	40e90933          	sub	s2,s2,a4
    284a:	c0d90913          	addi	s2,s2,-1011
    284e:	4881                	li	a7,0
    2850:	bde1                	j	2728 <__muldf3+0x94>
    2852:	00a9e433          	or	s0,s3,a0
    2856:	ec01                	bnez	s0,286e <__muldf3+0x1da>
    2858:	49a1                	li	s3,8
    285a:	4481                	li	s1,0
    285c:	7ff00913          	li	s2,2047
    2860:	4b89                	li	s7,2
    2862:	b559                	j	26e8 <__muldf3+0x54>
    2864:	0019e993          	ori	s3,s3,1
    2868:	4581                	li	a1,0
    286a:	4885                	li	a7,1
    286c:	bd75                	j	2728 <__muldf3+0x94>
    286e:	844e                	mv	s0,s3
    2870:	84aa                	mv	s1,a0
    2872:	49b1                	li	s3,12
    2874:	7ff00913          	li	s2,2047
    2878:	4b8d                	li	s7,3
    287a:	b5bd                	j	26e8 <__muldf3+0x54>
    287c:	4991                	li	s3,4
    287e:	4481                	li	s1,0
    2880:	4901                	li	s2,0
    2882:	4b85                	li	s7,1
    2884:	b595                	j	26e8 <__muldf3+0x54>
    2886:	0039e993          	ori	s3,s3,3
    288a:	87d2                	mv	a5,s4
    288c:	488d                	li	a7,3
    288e:	bd69                	j	2728 <__muldf3+0x94>
    2890:	4789                	li	a5,2
    2892:	8556                	mv	a0,s5
    2894:	f0fb97e3          	bne	s7,a5,27a2 <__muldf3+0x10e>
    2898:	872a                	mv	a4,a0
    289a:	7ff00793          	li	a5,2047
    289e:	4401                	li	s0,0
    28a0:	4481                	li	s1,0
    28a2:	b5f1                	j	276e <__muldf3+0xda>
    28a4:	6ec1                	lui	t4,0x10
    28a6:	fffe8613          	addi	a2,t4,-1 # ffff <_data_lma+0xba3b>
    28aa:	0104d693          	srli	a3,s1,0x10
    28ae:	0105de13          	srli	t3,a1,0x10
    28b2:	8cf1                	and	s1,s1,a2
    28b4:	8df1                	and	a1,a1,a2
    28b6:	02958633          	mul	a2,a1,s1
    28ba:	02b68333          	mul	t1,a3,a1
    28be:	01065893          	srli	a7,a2,0x10
    28c2:	029e0533          	mul	a0,t3,s1
    28c6:	951a                	add	a0,a0,t1
    28c8:	98aa                	add	a7,a7,a0
    28ca:	03c682b3          	mul	t0,a3,t3
    28ce:	0068f363          	bgeu	a7,t1,28d4 <__muldf3+0x240>
    28d2:	92f6                	add	t0,t0,t4
    28d4:	6fc1                	lui	t6,0x10
    28d6:	ffff8313          	addi	t1,t6,-1 # ffff <_data_lma+0xba3b>
    28da:	0067f533          	and	a0,a5,t1
    28de:	0107d393          	srli	t2,a5,0x10
    28e2:	0068f7b3          	and	a5,a7,t1
    28e6:	07c2                	slli	a5,a5,0x10
    28e8:	00667333          	and	t1,a2,t1
    28ec:	933e                	add	t1,t1,a5
    28ee:	02950633          	mul	a2,a0,s1
    28f2:	0108d893          	srli	a7,a7,0x10
    28f6:	02a687b3          	mul	a5,a3,a0
    28fa:	01065f13          	srli	t5,a2,0x10
    28fe:	029384b3          	mul	s1,t2,s1
    2902:	94be                	add	s1,s1,a5
    2904:	94fa                	add	s1,s1,t5
    2906:	02768eb3          	mul	t4,a3,t2
    290a:	00f4f363          	bgeu	s1,a5,2910 <__muldf3+0x27c>
    290e:	9efe                	add	t4,t4,t6
    2910:	6a41                	lui	s4,0x10
    2912:	fffa0793          	addi	a5,s4,-1 # ffff <_data_lma+0xba3b>
    2916:	01045f93          	srli	t6,s0,0x10
    291a:	00f476b3          	and	a3,s0,a5
    291e:	00f4f9b3          	and	s3,s1,a5
    2922:	8e7d                	and	a2,a2,a5
    2924:	80c1                	srli	s1,s1,0x10
    2926:	02d58433          	mul	s0,a1,a3
    292a:	09c2                	slli	s3,s3,0x10
    292c:	01d48f33          	add	t5,s1,t4
    2930:	99b2                	add	s3,s3,a2
    2932:	98ce                	add	a7,a7,s3
    2934:	02de07b3          	mul	a5,t3,a3
    2938:	01045e93          	srli	t4,s0,0x10
    293c:	02bf85b3          	mul	a1,t6,a1
    2940:	97ae                	add	a5,a5,a1
    2942:	9ebe                	add	t4,t4,a5
    2944:	03fe0e33          	mul	t3,t3,t6
    2948:	00bef363          	bgeu	t4,a1,294e <__muldf3+0x2ba>
    294c:	9e52                	add	t3,t3,s4
    294e:	67c1                	lui	a5,0x10
    2950:	fff78593          	addi	a1,a5,-1 # ffff <_data_lma+0xba3b>
    2954:	00bef633          	and	a2,t4,a1
    2958:	8c6d                	and	s0,s0,a1
    295a:	0642                	slli	a2,a2,0x10
    295c:	9622                	add	a2,a2,s0
    295e:	010ede93          	srli	t4,t4,0x10
    2962:	02d505b3          	mul	a1,a0,a3
    2966:	9e76                	add	t3,t3,t4
    2968:	02af8533          	mul	a0,t6,a0
    296c:	0105d413          	srli	s0,a1,0x10
    2970:	02d386b3          	mul	a3,t2,a3
    2974:	96aa                	add	a3,a3,a0
    2976:	96a2                	add	a3,a3,s0
    2978:	03f38fb3          	mul	t6,t2,t6
    297c:	00a6f363          	bgeu	a3,a0,2982 <__muldf3+0x2ee>
    2980:	9fbe                	add	t6,t6,a5
    2982:	6541                	lui	a0,0x10
    2984:	157d                	addi	a0,a0,-1
    2986:	00a6f7b3          	and	a5,a3,a0
    298a:	07c2                	slli	a5,a5,0x10
    298c:	8d6d                	and	a0,a0,a1
    298e:	97aa                	add	a5,a5,a0
    2990:	005885b3          	add	a1,a7,t0
    2994:	0135b9b3          	sltu	s3,a1,s3
    2998:	97fa                	add	a5,a5,t5
    299a:	95b2                	add	a1,a1,a2
    299c:	01378433          	add	s0,a5,s3
    29a0:	00c5b633          	sltu	a2,a1,a2
    29a4:	01c40eb3          	add	t4,s0,t3
    29a8:	00ce8533          	add	a0,t4,a2
    29ac:	01343433          	sltu	s0,s0,s3
    29b0:	01e7b7b3          	sltu	a5,a5,t5
    29b4:	8fc1                	or	a5,a5,s0
    29b6:	01cebe33          	sltu	t3,t4,t3
    29ba:	0106d413          	srli	s0,a3,0x10
    29be:	00c53633          	sltu	a2,a0,a2
    29c2:	943e                	add	s0,s0,a5
    29c4:	00ce6633          	or	a2,t3,a2
    29c8:	00959493          	slli	s1,a1,0x9
    29cc:	9432                	add	s0,s0,a2
    29ce:	947e                	add	s0,s0,t6
    29d0:	0064e4b3          	or	s1,s1,t1
    29d4:	0426                	slli	s0,s0,0x9
    29d6:	01755693          	srli	a3,a0,0x17
    29da:	009034b3          	snez	s1,s1
    29de:	81dd                	srli	a1,a1,0x17
    29e0:	00951793          	slli	a5,a0,0x9
    29e4:	8ccd                	or	s1,s1,a1
    29e6:	8c55                	or	s0,s0,a3
    29e8:	8cdd                	or	s1,s1,a5
    29ea:	00741793          	slli	a5,s0,0x7
    29ee:	0007db63          	bgez	a5,2a04 <__muldf3+0x370>
    29f2:	0014d793          	srli	a5,s1,0x1
    29f6:	8885                	andi	s1,s1,1
    29f8:	01f41693          	slli	a3,s0,0x1f
    29fc:	8cdd                	or	s1,s1,a5
    29fe:	8cd5                	or	s1,s1,a3
    2a00:	8005                	srli	s0,s0,0x1
    2a02:	8942                	mv	s2,a6
    2a04:	3ff90793          	addi	a5,s2,1023
    2a08:	08f05963          	blez	a5,2a9a <__muldf3+0x406>
    2a0c:	0074f693          	andi	a3,s1,7
    2a10:	ce81                	beqz	a3,2a28 <__muldf3+0x394>
    2a12:	00f4f693          	andi	a3,s1,15
    2a16:	4611                	li	a2,4
    2a18:	00c68863          	beq	a3,a2,2a28 <__muldf3+0x394>
    2a1c:	00448693          	addi	a3,s1,4
    2a20:	0096b4b3          	sltu	s1,a3,s1
    2a24:	9426                	add	s0,s0,s1
    2a26:	84b6                	mv	s1,a3
    2a28:	00741693          	slli	a3,s0,0x7
    2a2c:	0006d863          	bgez	a3,2a3c <__muldf3+0x3a8>
    2a30:	ff0007b7          	lui	a5,0xff000
    2a34:	17fd                	addi	a5,a5,-1
    2a36:	8c7d                	and	s0,s0,a5
    2a38:	40090793          	addi	a5,s2,1024
    2a3c:	7fe00693          	li	a3,2046
    2a40:	0ef6cf63          	blt	a3,a5,2b3e <__muldf3+0x4aa>
    2a44:	0034d693          	srli	a3,s1,0x3
    2a48:	01d41493          	slli	s1,s0,0x1d
    2a4c:	0426                	slli	s0,s0,0x9
    2a4e:	8cd5                	or	s1,s1,a3
    2a50:	8031                	srli	s0,s0,0xc
    2a52:	7ff7f793          	andi	a5,a5,2047
    2a56:	bb21                	j	276e <__muldf3+0xda>
    2a58:	8532                	mv	a0,a2
    2a5a:	c432                	sw	a2,8(sp)
    2a5c:	1ee010ef          	jal	ra,3c4a <__clzsi2>
    2a60:	01550693          	addi	a3,a0,21 # 10015 <_data_lma+0xba51>
    2a64:	47f1                	li	a5,28
    2a66:	02050713          	addi	a4,a0,32
    2a6a:	4622                	lw	a2,8(sp)
    2a6c:	dcd7d1e3          	bge	a5,a3,282e <__muldf3+0x19a>
    2a70:	1561                	addi	a0,a0,-8
    2a72:	00a617b3          	sll	a5,a2,a0
    2a76:	4581                	li	a1,0
    2a78:	b3f9                	j	2846 <__muldf3+0x1b2>
    2a7a:	1d0010ef          	jal	ra,3c4a <__clzsi2>
    2a7e:	01550713          	addi	a4,a0,21
    2a82:	45f1                	li	a1,28
    2a84:	02050793          	addi	a5,a0,32
    2a88:	4622                	lw	a2,8(sp)
    2a8a:	46b2                	lw	a3,12(sp)
    2a8c:	d4e5d5e3          	bge	a1,a4,27d6 <__muldf3+0x142>
    2a90:	1561                	addi	a0,a0,-8
    2a92:	00aa1433          	sll	s0,s4,a0
    2a96:	4481                	li	s1,0
    2a98:	bb99                	j	27ee <__muldf3+0x15a>
    2a9a:	4685                	li	a3,1
    2a9c:	8e9d                	sub	a3,a3,a5
    2a9e:	e7b1                	bnez	a5,2aea <__muldf3+0x456>
    2aa0:	41e90913          	addi	s2,s2,1054
    2aa4:	012497b3          	sll	a5,s1,s2
    2aa8:	00d4d4b3          	srl	s1,s1,a3
    2aac:	01241933          	sll	s2,s0,s2
    2ab0:	00f037b3          	snez	a5,a5
    2ab4:	009964b3          	or	s1,s2,s1
    2ab8:	8cdd                	or	s1,s1,a5
    2aba:	0074f793          	andi	a5,s1,7
    2abe:	00d456b3          	srl	a3,s0,a3
    2ac2:	cf81                	beqz	a5,2ada <__muldf3+0x446>
    2ac4:	00f4f793          	andi	a5,s1,15
    2ac8:	4611                	li	a2,4
    2aca:	00c78863          	beq	a5,a2,2ada <__muldf3+0x446>
    2ace:	00448793          	addi	a5,s1,4
    2ad2:	0097b4b3          	sltu	s1,a5,s1
    2ad6:	96a6                	add	a3,a3,s1
    2ad8:	84be                	mv	s1,a5
    2ada:	00869793          	slli	a5,a3,0x8
    2ade:	0407d863          	bgez	a5,2b2e <__muldf3+0x49a>
    2ae2:	4785                	li	a5,1
    2ae4:	4401                	li	s0,0
    2ae6:	4481                	li	s1,0
    2ae8:	b159                	j	276e <__muldf3+0xda>
    2aea:	03800613          	li	a2,56
    2aee:	ccd641e3          	blt	a2,a3,27b0 <__muldf3+0x11c>
    2af2:	467d                	li	a2,31
    2af4:	fad656e3          	bge	a2,a3,2aa0 <__muldf3+0x40c>
    2af8:	5605                	li	a2,-31
    2afa:	40f607b3          	sub	a5,a2,a5
    2afe:	02000593          	li	a1,32
    2b02:	00f45633          	srl	a2,s0,a5
    2b06:	00b68763          	beq	a3,a1,2b14 <__muldf3+0x480>
    2b0a:	43e90913          	addi	s2,s2,1086
    2b0e:	012417b3          	sll	a5,s0,s2
    2b12:	8cdd                	or	s1,s1,a5
    2b14:	009034b3          	snez	s1,s1
    2b18:	8cd1                	or	s1,s1,a2
    2b1a:	0074f693          	andi	a3,s1,7
    2b1e:	4401                	li	s0,0
    2b20:	ca99                	beqz	a3,2b36 <__muldf3+0x4a2>
    2b22:	00f4f793          	andi	a5,s1,15
    2b26:	4611                	li	a2,4
    2b28:	4681                	li	a3,0
    2b2a:	fac792e3          	bne	a5,a2,2ace <__muldf3+0x43a>
    2b2e:	00969413          	slli	s0,a3,0x9
    2b32:	8031                	srli	s0,s0,0xc
    2b34:	06f6                	slli	a3,a3,0x1d
    2b36:	808d                	srli	s1,s1,0x3
    2b38:	8cd5                	or	s1,s1,a3
    2b3a:	4781                	li	a5,0
    2b3c:	b90d                	j	276e <__muldf3+0xda>
    2b3e:	7ff00793          	li	a5,2047
    2b42:	4401                	li	s0,0
    2b44:	4481                	li	s1,0
    2b46:	b125                	j	276e <__muldf3+0xda>
    2b48:	8942                	mv	s2,a6
    2b4a:	bd6d                	j	2a04 <__muldf3+0x370>

00002b4c <__subdf3>:
    2b4c:	00100737          	lui	a4,0x100
    2b50:	177d                	addi	a4,a4,-1
    2b52:	1101                	addi	sp,sp,-32
    2b54:	00b77333          	and	t1,a4,a1
    2b58:	0146d893          	srli	a7,a3,0x14
    2b5c:	8f75                	and	a4,a4,a3
    2b5e:	01d65e93          	srli	t4,a2,0x1d
    2b62:	cc22                	sw	s0,24(sp)
    2b64:	ca26                	sw	s1,20(sp)
    2b66:	030e                	slli	t1,t1,0x3
    2b68:	0145d493          	srli	s1,a1,0x14
    2b6c:	01d55793          	srli	a5,a0,0x1d
    2b70:	070e                	slli	a4,a4,0x3
    2b72:	ce06                	sw	ra,28(sp)
    2b74:	c84a                	sw	s2,16(sp)
    2b76:	c64e                	sw	s3,12(sp)
    2b78:	7ff8f893          	andi	a7,a7,2047
    2b7c:	7ff00e13          	li	t3,2047
    2b80:	00eee733          	or	a4,t4,a4
    2b84:	7ff4f493          	andi	s1,s1,2047
    2b88:	01f5d413          	srli	s0,a1,0x1f
    2b8c:	0067e333          	or	t1,a5,t1
    2b90:	00351f13          	slli	t5,a0,0x3
    2b94:	82fd                	srli	a3,a3,0x1f
    2b96:	00361e93          	slli	t4,a2,0x3
    2b9a:	19c88063          	beq	a7,t3,2d1a <__subdf3+0x1ce>
    2b9e:	0016c693          	xori	a3,a3,1
    2ba2:	411485b3          	sub	a1,s1,a7
    2ba6:	12d40563          	beq	s0,a3,2cd0 <__subdf3+0x184>
    2baa:	18b05163          	blez	a1,2d2c <__subdf3+0x1e0>
    2bae:	1a088b63          	beqz	a7,2d64 <__subdf3+0x218>
    2bb2:	008007b7          	lui	a5,0x800
    2bb6:	8f5d                	or	a4,a4,a5
    2bb8:	59c48163          	beq	s1,t3,313a <__subdf3+0x5ee>
    2bbc:	03800793          	li	a5,56
    2bc0:	34b7c463          	blt	a5,a1,2f08 <__subdf3+0x3bc>
    2bc4:	47fd                	li	a5,31
    2bc6:	48b7c563          	blt	a5,a1,3050 <__subdf3+0x504>
    2bca:	02000793          	li	a5,32
    2bce:	8f8d                	sub	a5,a5,a1
    2bd0:	00bed9b3          	srl	s3,t4,a1
    2bd4:	00f71833          	sll	a6,a4,a5
    2bd8:	00fe9eb3          	sll	t4,t4,a5
    2bdc:	01386833          	or	a6,a6,s3
    2be0:	00b75733          	srl	a4,a4,a1
    2be4:	01d039b3          	snez	s3,t4
    2be8:	01386833          	or	a6,a6,s3
    2bec:	40e30333          	sub	t1,t1,a4
    2bf0:	410f09b3          	sub	s3,t5,a6
    2bf4:	013f37b3          	sltu	a5,t5,s3
    2bf8:	40f30633          	sub	a2,t1,a5
    2bfc:	00861793          	slli	a5,a2,0x8
    2c00:	2407d363          	bgez	a5,2e46 <__subdf3+0x2fa>
    2c04:	00800937          	lui	s2,0x800
    2c08:	197d                	addi	s2,s2,-1
    2c0a:	01267933          	and	s2,a2,s2
    2c0e:	2c090f63          	beqz	s2,2eec <__subdf3+0x3a0>
    2c12:	854a                	mv	a0,s2
    2c14:	036010ef          	jal	ra,3c4a <__clzsi2>
    2c18:	ff850713          	addi	a4,a0,-8
    2c1c:	02000793          	li	a5,32
    2c20:	8f99                	sub	a5,a5,a4
    2c22:	00f9d7b3          	srl	a5,s3,a5
    2c26:	00e91633          	sll	a2,s2,a4
    2c2a:	8fd1                	or	a5,a5,a2
    2c2c:	00e999b3          	sll	s3,s3,a4
    2c30:	2a974463          	blt	a4,s1,2ed8 <__subdf3+0x38c>
    2c34:	8f05                	sub	a4,a4,s1
    2c36:	00170613          	addi	a2,a4,1 # 100001 <_data_lma+0xfba3d>
    2c3a:	46fd                	li	a3,31
    2c3c:	3ac6c563          	blt	a3,a2,2fe6 <__subdf3+0x49a>
    2c40:	02000713          	li	a4,32
    2c44:	8f11                	sub	a4,a4,a2
    2c46:	00c9d6b3          	srl	a3,s3,a2
    2c4a:	00e99833          	sll	a6,s3,a4
    2c4e:	00e79733          	sll	a4,a5,a4
    2c52:	8f55                	or	a4,a4,a3
    2c54:	01003833          	snez	a6,a6
    2c58:	010769b3          	or	s3,a4,a6
    2c5c:	00c7d633          	srl	a2,a5,a2
    2c60:	4481                	li	s1,0
    2c62:	0079f793          	andi	a5,s3,7
    2c66:	cf81                	beqz	a5,2c7e <__subdf3+0x132>
    2c68:	00f9f693          	andi	a3,s3,15
    2c6c:	4791                	li	a5,4
    2c6e:	00f68863          	beq	a3,a5,2c7e <__subdf3+0x132>
    2c72:	00498693          	addi	a3,s3,4
    2c76:	0136b833          	sltu	a6,a3,s3
    2c7a:	9642                	add	a2,a2,a6
    2c7c:	89b6                	mv	s3,a3
    2c7e:	00861793          	slli	a5,a2,0x8
    2c82:	1c07d663          	bgez	a5,2e4e <__subdf3+0x302>
    2c86:	00148713          	addi	a4,s1,1
    2c8a:	7ff00793          	li	a5,2047
    2c8e:	8805                	andi	s0,s0,1
    2c90:	20f70663          	beq	a4,a5,2e9c <__subdf3+0x350>
    2c94:	ff8007b7          	lui	a5,0xff800
    2c98:	17fd                	addi	a5,a5,-1
    2c9a:	8ff1                	and	a5,a5,a2
    2c9c:	01d79813          	slli	a6,a5,0x1d
    2ca0:	0039d993          	srli	s3,s3,0x3
    2ca4:	07a6                	slli	a5,a5,0x9
    2ca6:	01386833          	or	a6,a6,s3
    2caa:	83b1                	srli	a5,a5,0xc
    2cac:	7ff77713          	andi	a4,a4,2047
    2cb0:	00c79693          	slli	a3,a5,0xc
    2cb4:	0752                	slli	a4,a4,0x14
    2cb6:	82b1                	srli	a3,a3,0xc
    2cb8:	047e                	slli	s0,s0,0x1f
    2cba:	8ed9                	or	a3,a3,a4
    2cbc:	8ec1                	or	a3,a3,s0
    2cbe:	40f2                	lw	ra,28(sp)
    2cc0:	4462                	lw	s0,24(sp)
    2cc2:	44d2                	lw	s1,20(sp)
    2cc4:	4942                	lw	s2,16(sp)
    2cc6:	49b2                	lw	s3,12(sp)
    2cc8:	8542                	mv	a0,a6
    2cca:	85b6                	mv	a1,a3
    2ccc:	6105                	addi	sp,sp,32
    2cce:	8082                	ret
    2cd0:	0ab05663          	blez	a1,2d7c <__subdf3+0x230>
    2cd4:	12088a63          	beqz	a7,2e08 <__subdf3+0x2bc>
    2cd8:	008007b7          	lui	a5,0x800
    2cdc:	8f5d                	or	a4,a4,a5
    2cde:	2dc48763          	beq	s1,t3,2fac <__subdf3+0x460>
    2ce2:	03800793          	li	a5,56
    2ce6:	18b7c763          	blt	a5,a1,2e74 <__subdf3+0x328>
    2cea:	47fd                	li	a5,31
    2cec:	3cb7d263          	bge	a5,a1,30b0 <__subdf3+0x564>
    2cf0:	fe058813          	addi	a6,a1,-32 # ffe0 <_data_lma+0xba1c>
    2cf4:	02000793          	li	a5,32
    2cf8:	010759b3          	srl	s3,a4,a6
    2cfc:	00f58a63          	beq	a1,a5,2d10 <__subdf3+0x1c4>
    2d00:	04000793          	li	a5,64
    2d04:	40b785b3          	sub	a1,a5,a1
    2d08:	00b71733          	sll	a4,a4,a1
    2d0c:	00eeeeb3          	or	t4,t4,a4
    2d10:	01d03833          	snez	a6,t4
    2d14:	01386833          	or	a6,a6,s3
    2d18:	a295                	j	2e7c <__subdf3+0x330>
    2d1a:	01d767b3          	or	a5,a4,t4
    2d1e:	80148593          	addi	a1,s1,-2047
    2d22:	e399                	bnez	a5,2d28 <__subdf3+0x1dc>
    2d24:	0016c693          	xori	a3,a3,1
    2d28:	04d40a63          	beq	s0,a3,2d7c <__subdf3+0x230>
    2d2c:	e1d1                	bnez	a1,2db0 <__subdf3+0x264>
    2d2e:	00148793          	addi	a5,s1,1
    2d32:	7fe7f793          	andi	a5,a5,2046
    2d36:	1e079963          	bnez	a5,2f28 <__subdf3+0x3dc>
    2d3a:	01e367b3          	or	a5,t1,t5
    2d3e:	01d76833          	or	a6,a4,t4
    2d42:	16049263          	bnez	s1,2ea6 <__subdf3+0x35a>
    2d46:	3c078263          	beqz	a5,310a <__subdf3+0x5be>
    2d4a:	42081663          	bnez	a6,3176 <__subdf3+0x62a>
    2d4e:	00351813          	slli	a6,a0,0x3
    2d52:	01d31693          	slli	a3,t1,0x1d
    2d56:	00385813          	srli	a6,a6,0x3
    2d5a:	0106e833          	or	a6,a3,a6
    2d5e:	00335793          	srli	a5,t1,0x3
    2d62:	a219                	j	2e68 <__subdf3+0x31c>
    2d64:	01d767b3          	or	a5,a4,t4
    2d68:	1a078563          	beqz	a5,2f12 <__subdf3+0x3c6>
    2d6c:	fff58793          	addi	a5,a1,-1
    2d70:	3a078b63          	beqz	a5,3126 <__subdf3+0x5da>
    2d74:	23c58c63          	beq	a1,t3,2fac <__subdf3+0x460>
    2d78:	85be                	mv	a1,a5
    2d7a:	b589                	j	2bbc <__subdf3+0x70>
    2d7c:	1c059963          	bnez	a1,2f4e <__subdf3+0x402>
    2d80:	00148693          	addi	a3,s1,1
    2d84:	7fe6f793          	andi	a5,a3,2046
    2d88:	efc1                	bnez	a5,2e20 <__subdf3+0x2d4>
    2d8a:	01e367b3          	or	a5,t1,t5
    2d8e:	36049063          	bnez	s1,30ee <__subdf3+0x5a2>
    2d92:	44078d63          	beqz	a5,31ec <__subdf3+0x6a0>
    2d96:	01d767b3          	or	a5,a4,t4
    2d9a:	46079463          	bnez	a5,3202 <__subdf3+0x6b6>
    2d9e:	050e                	slli	a0,a0,0x3
    2da0:	01d31813          	slli	a6,t1,0x1d
    2da4:	810d                	srli	a0,a0,0x3
    2da6:	00a86833          	or	a6,a6,a0
    2daa:	00335793          	srli	a5,t1,0x3
    2dae:	a86d                	j	2e68 <__subdf3+0x31c>
    2db0:	409885b3          	sub	a1,a7,s1
    2db4:	20049763          	bnez	s1,2fc2 <__subdf3+0x476>
    2db8:	01e367b3          	or	a5,t1,t5
    2dbc:	30078d63          	beqz	a5,30d6 <__subdf3+0x58a>
    2dc0:	fff58793          	addi	a5,a1,-1
    2dc4:	40078963          	beqz	a5,31d6 <__subdf3+0x68a>
    2dc8:	7ff00513          	li	a0,2047
    2dcc:	20a58363          	beq	a1,a0,2fd2 <__subdf3+0x486>
    2dd0:	85be                	mv	a1,a5
    2dd2:	03800793          	li	a5,56
    2dd6:	2ab7c263          	blt	a5,a1,307a <__subdf3+0x52e>
    2dda:	47fd                	li	a5,31
    2ddc:	3cb7c863          	blt	a5,a1,31ac <__subdf3+0x660>
    2de0:	02000793          	li	a5,32
    2de4:	8f8d                	sub	a5,a5,a1
    2de6:	00f31833          	sll	a6,t1,a5
    2dea:	00bf5633          	srl	a2,t5,a1
    2dee:	00ff17b3          	sll	a5,t5,a5
    2df2:	00c86833          	or	a6,a6,a2
    2df6:	00f039b3          	snez	s3,a5
    2dfa:	00b35333          	srl	t1,t1,a1
    2dfe:	01386833          	or	a6,a6,s3
    2e02:	40670733          	sub	a4,a4,t1
    2e06:	acb5                	j	3082 <__subdf3+0x536>
    2e08:	01d767b3          	or	a5,a4,t4
    2e0c:	10078363          	beqz	a5,2f12 <__subdf3+0x3c6>
    2e10:	fff58793          	addi	a5,a1,-1
    2e14:	1e078f63          	beqz	a5,3012 <__subdf3+0x4c6>
    2e18:	2fc58063          	beq	a1,t3,30f8 <__subdf3+0x5ac>
    2e1c:	85be                	mv	a1,a5
    2e1e:	b5d1                	j	2ce2 <__subdf3+0x196>
    2e20:	7ff00793          	li	a5,2047
    2e24:	06f68b63          	beq	a3,a5,2e9a <__subdf3+0x34e>
    2e28:	9efa                	add	t4,t4,t5
    2e2a:	01eeb633          	sltu	a2,t4,t5
    2e2e:	00e307b3          	add	a5,t1,a4
    2e32:	97b2                	add	a5,a5,a2
    2e34:	01f79813          	slli	a6,a5,0x1f
    2e38:	001ede93          	srli	t4,t4,0x1
    2e3c:	01d869b3          	or	s3,a6,t4
    2e40:	0017d613          	srli	a2,a5,0x1
    2e44:	84b6                	mv	s1,a3
    2e46:	0079f793          	andi	a5,s3,7
    2e4a:	e0079fe3          	bnez	a5,2c68 <__subdf3+0x11c>
    2e4e:	01d61793          	slli	a5,a2,0x1d
    2e52:	0039d813          	srli	a6,s3,0x3
    2e56:	00f86833          	or	a6,a6,a5
    2e5a:	85a6                	mv	a1,s1
    2e5c:	00365793          	srli	a5,a2,0x3
    2e60:	7ff00713          	li	a4,2047
    2e64:	06e58063          	beq	a1,a4,2ec4 <__subdf3+0x378>
    2e68:	07b2                	slli	a5,a5,0xc
    2e6a:	83b1                	srli	a5,a5,0xc
    2e6c:	7ff5f713          	andi	a4,a1,2047
    2e70:	8805                	andi	s0,s0,1
    2e72:	bd3d                	j	2cb0 <__subdf3+0x164>
    2e74:	01d76733          	or	a4,a4,t4
    2e78:	00e03833          	snez	a6,a4
    2e7c:	01e809b3          	add	s3,a6,t5
    2e80:	01e9b7b3          	sltu	a5,s3,t5
    2e84:	00678633          	add	a2,a5,t1
    2e88:	00861793          	slli	a5,a2,0x8
    2e8c:	fa07dde3          	bgez	a5,2e46 <__subdf3+0x2fa>
    2e90:	0485                	addi	s1,s1,1
    2e92:	7ff00793          	li	a5,2047
    2e96:	18f49c63          	bne	s1,a5,302e <__subdf3+0x4e2>
    2e9a:	8805                	andi	s0,s0,1
    2e9c:	7ff00713          	li	a4,2047
    2ea0:	4781                	li	a5,0
    2ea2:	4801                	li	a6,0
    2ea4:	b531                	j	2cb0 <__subdf3+0x164>
    2ea6:	10079163          	bnez	a5,2fa8 <__subdf3+0x45c>
    2eaa:	3c080163          	beqz	a6,326c <__subdf3+0x720>
    2eae:	00361813          	slli	a6,a2,0x3
    2eb2:	01d71793          	slli	a5,a4,0x1d
    2eb6:	00385813          	srli	a6,a6,0x3
    2eba:	00f86833          	or	a6,a6,a5
    2ebe:	8436                	mv	s0,a3
    2ec0:	00375793          	srli	a5,a4,0x3
    2ec4:	00f867b3          	or	a5,a6,a5
    2ec8:	dbe9                	beqz	a5,2e9a <__subdf3+0x34e>
    2eca:	4401                	li	s0,0
    2ecc:	7ff00713          	li	a4,2047
    2ed0:	000807b7          	lui	a5,0x80
    2ed4:	4801                	li	a6,0
    2ed6:	bbe9                	j	2cb0 <__subdf3+0x164>
    2ed8:	ff800637          	lui	a2,0xff800
    2edc:	167d                	addi	a2,a2,-1
    2ede:	8e7d                	and	a2,a2,a5
    2ee0:	0079f793          	andi	a5,s3,7
    2ee4:	8c99                	sub	s1,s1,a4
    2ee6:	d80791e3          	bnez	a5,2c68 <__subdf3+0x11c>
    2eea:	b795                	j	2e4e <__subdf3+0x302>
    2eec:	854e                	mv	a0,s3
    2eee:	55d000ef          	jal	ra,3c4a <__clzsi2>
    2ef2:	01850713          	addi	a4,a0,24
    2ef6:	47fd                	li	a5,31
    2ef8:	d2e7d2e3          	bge	a5,a4,2c1c <__subdf3+0xd0>
    2efc:	ff850613          	addi	a2,a0,-8
    2f00:	00c997b3          	sll	a5,s3,a2
    2f04:	4981                	li	s3,0
    2f06:	b32d                	j	2c30 <__subdf3+0xe4>
    2f08:	01d76833          	or	a6,a4,t4
    2f0c:	01003833          	snez	a6,a6
    2f10:	b1c5                	j	2bf0 <__subdf3+0xa4>
    2f12:	00351813          	slli	a6,a0,0x3
    2f16:	01d31793          	slli	a5,t1,0x1d
    2f1a:	00385813          	srli	a6,a6,0x3
    2f1e:	00f86833          	or	a6,a6,a5
    2f22:	00335793          	srli	a5,t1,0x3
    2f26:	bf2d                	j	2e60 <__subdf3+0x314>
    2f28:	41df09b3          	sub	s3,t5,t4
    2f2c:	40e30933          	sub	s2,t1,a4
    2f30:	013f3633          	sltu	a2,t5,s3
    2f34:	40c90933          	sub	s2,s2,a2
    2f38:	00891793          	slli	a5,s2,0x8
    2f3c:	2007ca63          	bltz	a5,3150 <__subdf3+0x604>
    2f40:	0129e833          	or	a6,s3,s2
    2f44:	cc0815e3          	bnez	a6,2c0e <__subdf3+0xc2>
    2f48:	4781                	li	a5,0
    2f4a:	4401                	li	s0,0
    2f4c:	bf31                	j	2e68 <__subdf3+0x31c>
    2f4e:	409885b3          	sub	a1,a7,s1
    2f52:	14048163          	beqz	s1,3094 <__subdf3+0x548>
    2f56:	008006b7          	lui	a3,0x800
    2f5a:	7ff00793          	li	a5,2047
    2f5e:	00d36333          	or	t1,t1,a3
    2f62:	20f88163          	beq	a7,a5,3164 <__subdf3+0x618>
    2f66:	03800793          	li	a5,56
    2f6a:	22b7cc63          	blt	a5,a1,31a2 <__subdf3+0x656>
    2f6e:	47fd                	li	a5,31
    2f70:	2cb7c963          	blt	a5,a1,3242 <__subdf3+0x6f6>
    2f74:	02000793          	li	a5,32
    2f78:	8f8d                	sub	a5,a5,a1
    2f7a:	00f31833          	sll	a6,t1,a5
    2f7e:	00bf56b3          	srl	a3,t5,a1
    2f82:	00ff17b3          	sll	a5,t5,a5
    2f86:	00d86833          	or	a6,a6,a3
    2f8a:	00f039b3          	snez	s3,a5
    2f8e:	00b35333          	srl	t1,t1,a1
    2f92:	01386833          	or	a6,a6,s3
    2f96:	971a                	add	a4,a4,t1
    2f98:	01d809b3          	add	s3,a6,t4
    2f9c:	01d9b7b3          	sltu	a5,s3,t4
    2fa0:	00e78633          	add	a2,a5,a4
    2fa4:	84c6                	mv	s1,a7
    2fa6:	b5cd                	j	2e88 <__subdf3+0x33c>
    2fa8:	f20811e3          	bnez	a6,2eca <__subdf3+0x37e>
    2fac:	00351813          	slli	a6,a0,0x3
    2fb0:	01d31793          	slli	a5,t1,0x1d
    2fb4:	00385813          	srli	a6,a6,0x3
    2fb8:	00f86833          	or	a6,a6,a5
    2fbc:	00335793          	srli	a5,t1,0x3
    2fc0:	b711                	j	2ec4 <__subdf3+0x378>
    2fc2:	00800537          	lui	a0,0x800
    2fc6:	7ff00793          	li	a5,2047
    2fca:	00a36333          	or	t1,t1,a0
    2fce:	e0f892e3          	bne	a7,a5,2dd2 <__subdf3+0x286>
    2fd2:	060e                	slli	a2,a2,0x3
    2fd4:	01d71813          	slli	a6,a4,0x1d
    2fd8:	820d                	srli	a2,a2,0x3
    2fda:	00c86833          	or	a6,a6,a2
    2fde:	00375793          	srli	a5,a4,0x3
    2fe2:	8436                	mv	s0,a3
    2fe4:	b5c5                	j	2ec4 <__subdf3+0x378>
    2fe6:	1705                	addi	a4,a4,-31
    2fe8:	02000693          	li	a3,32
    2fec:	00e7d733          	srl	a4,a5,a4
    2ff0:	00d60a63          	beq	a2,a3,3004 <__subdf3+0x4b8>
    2ff4:	04000693          	li	a3,64
    2ff8:	40c68633          	sub	a2,a3,a2
    2ffc:	00c79633          	sll	a2,a5,a2
    3000:	00c9e9b3          	or	s3,s3,a2
    3004:	01303833          	snez	a6,s3
    3008:	00e869b3          	or	s3,a6,a4
    300c:	4601                	li	a2,0
    300e:	4481                	li	s1,0
    3010:	bd1d                	j	2e46 <__subdf3+0x2fa>
    3012:	01df09b3          	add	s3,t5,t4
    3016:	00e307b3          	add	a5,t1,a4
    301a:	01e9bf33          	sltu	t5,s3,t5
    301e:	01e78633          	add	a2,a5,t5
    3022:	00861793          	slli	a5,a2,0x8
    3026:	4485                	li	s1,1
    3028:	e007dfe3          	bgez	a5,2e46 <__subdf3+0x2fa>
    302c:	4489                	li	s1,2
    302e:	ff8007b7          	lui	a5,0xff800
    3032:	17fd                	addi	a5,a5,-1
    3034:	8ff1                	and	a5,a5,a2
    3036:	0019d713          	srli	a4,s3,0x1
    303a:	0019f813          	andi	a6,s3,1
    303e:	01076833          	or	a6,a4,a6
    3042:	01f79993          	slli	s3,a5,0x1f
    3046:	0109e9b3          	or	s3,s3,a6
    304a:	0017d613          	srli	a2,a5,0x1
    304e:	b911                	j	2c62 <__subdf3+0x116>
    3050:	fe058813          	addi	a6,a1,-32
    3054:	02000793          	li	a5,32
    3058:	010759b3          	srl	s3,a4,a6
    305c:	00f58a63          	beq	a1,a5,3070 <__subdf3+0x524>
    3060:	04000793          	li	a5,64
    3064:	40b785b3          	sub	a1,a5,a1
    3068:	00b71733          	sll	a4,a4,a1
    306c:	00eeeeb3          	or	t4,t4,a4
    3070:	01d03833          	snez	a6,t4
    3074:	01386833          	or	a6,a6,s3
    3078:	bea5                	j	2bf0 <__subdf3+0xa4>
    307a:	01e36333          	or	t1,t1,t5
    307e:	00603833          	snez	a6,t1
    3082:	410e89b3          	sub	s3,t4,a6
    3086:	013eb7b3          	sltu	a5,t4,s3
    308a:	40f70633          	sub	a2,a4,a5
    308e:	84c6                	mv	s1,a7
    3090:	8436                	mv	s0,a3
    3092:	b6ad                	j	2bfc <__subdf3+0xb0>
    3094:	01e367b3          	or	a5,t1,t5
    3098:	18078763          	beqz	a5,3226 <__subdf3+0x6da>
    309c:	fff58793          	addi	a5,a1,-1
    30a0:	1c078c63          	beqz	a5,3278 <__subdf3+0x72c>
    30a4:	7ff00693          	li	a3,2047
    30a8:	0ad58e63          	beq	a1,a3,3164 <__subdf3+0x618>
    30ac:	85be                	mv	a1,a5
    30ae:	bd65                	j	2f66 <__subdf3+0x41a>
    30b0:	02000793          	li	a5,32
    30b4:	8f8d                	sub	a5,a5,a1
    30b6:	00bed9b3          	srl	s3,t4,a1
    30ba:	00f71833          	sll	a6,a4,a5
    30be:	00fe9eb3          	sll	t4,t4,a5
    30c2:	01386833          	or	a6,a6,s3
    30c6:	00b75733          	srl	a4,a4,a1
    30ca:	01d039b3          	snez	s3,t4
    30ce:	01386833          	or	a6,a6,s3
    30d2:	933a                	add	t1,t1,a4
    30d4:	b365                	j	2e7c <__subdf3+0x330>
    30d6:	00361813          	slli	a6,a2,0x3
    30da:	01d71793          	slli	a5,a4,0x1d
    30de:	00385813          	srli	a6,a6,0x3
    30e2:	0107e833          	or	a6,a5,a6
    30e6:	8436                	mv	s0,a3
    30e8:	00375793          	srli	a5,a4,0x3
    30ec:	bb95                	j	2e60 <__subdf3+0x314>
    30ee:	cbbd                	beqz	a5,3164 <__subdf3+0x618>
    30f0:	01d76733          	or	a4,a4,t4
    30f4:	dc071be3          	bnez	a4,2eca <__subdf3+0x37e>
    30f8:	050e                	slli	a0,a0,0x3
    30fa:	01d31813          	slli	a6,t1,0x1d
    30fe:	810d                	srli	a0,a0,0x3
    3100:	00a86833          	or	a6,a6,a0
    3104:	00335793          	srli	a5,t1,0x3
    3108:	bb75                	j	2ec4 <__subdf3+0x378>
    310a:	e2080fe3          	beqz	a6,2f48 <__subdf3+0x3fc>
    310e:	00361813          	slli	a6,a2,0x3
    3112:	01d71793          	slli	a5,a4,0x1d
    3116:	00385813          	srli	a6,a6,0x3
    311a:	00f86833          	or	a6,a6,a5
    311e:	8436                	mv	s0,a3
    3120:	00375793          	srli	a5,a4,0x3
    3124:	b391                	j	2e68 <__subdf3+0x31c>
    3126:	41df09b3          	sub	s3,t5,t4
    312a:	40e307b3          	sub	a5,t1,a4
    312e:	013f3f33          	sltu	t5,t5,s3
    3132:	41e78633          	sub	a2,a5,t5
    3136:	4485                	li	s1,1
    3138:	b4d1                	j	2bfc <__subdf3+0xb0>
    313a:	00351813          	slli	a6,a0,0x3
    313e:	01d31693          	slli	a3,t1,0x1d
    3142:	00385813          	srli	a6,a6,0x3
    3146:	0106e833          	or	a6,a3,a6
    314a:	00335793          	srli	a5,t1,0x3
    314e:	bb9d                	j	2ec4 <__subdf3+0x378>
    3150:	41ee89b3          	sub	s3,t4,t5
    3154:	40670633          	sub	a2,a4,t1
    3158:	013eb933          	sltu	s2,t4,s3
    315c:	41260933          	sub	s2,a2,s2
    3160:	8436                	mv	s0,a3
    3162:	b475                	j	2c0e <__subdf3+0xc2>
    3164:	060e                	slli	a2,a2,0x3
    3166:	01d71813          	slli	a6,a4,0x1d
    316a:	820d                	srli	a2,a2,0x3
    316c:	00c86833          	or	a6,a6,a2
    3170:	00375793          	srli	a5,a4,0x3
    3174:	bb81                	j	2ec4 <__subdf3+0x378>
    3176:	41df09b3          	sub	s3,t5,t4
    317a:	40e307b3          	sub	a5,t1,a4
    317e:	013f3633          	sltu	a2,t5,s3
    3182:	40c78633          	sub	a2,a5,a2
    3186:	00861793          	slli	a5,a2,0x8
    318a:	0a07d763          	bgez	a5,3238 <__subdf3+0x6ec>
    318e:	41ee89b3          	sub	s3,t4,t5
    3192:	406707b3          	sub	a5,a4,t1
    3196:	013ebeb3          	sltu	t4,t4,s3
    319a:	41d78633          	sub	a2,a5,t4
    319e:	8436                	mv	s0,a3
    31a0:	b4c9                	j	2c62 <__subdf3+0x116>
    31a2:	01e36333          	or	t1,t1,t5
    31a6:	00603833          	snez	a6,t1
    31aa:	b3fd                	j	2f98 <__subdf3+0x44c>
    31ac:	fe058813          	addi	a6,a1,-32
    31b0:	02000793          	li	a5,32
    31b4:	010359b3          	srl	s3,t1,a6
    31b8:	00f58a63          	beq	a1,a5,31cc <__subdf3+0x680>
    31bc:	04000793          	li	a5,64
    31c0:	40b785b3          	sub	a1,a5,a1
    31c4:	00b31333          	sll	t1,t1,a1
    31c8:	006f6f33          	or	t5,t5,t1
    31cc:	01e03833          	snez	a6,t5
    31d0:	01386833          	or	a6,a6,s3
    31d4:	b57d                	j	3082 <__subdf3+0x536>
    31d6:	41ee89b3          	sub	s3,t4,t5
    31da:	406707b3          	sub	a5,a4,t1
    31de:	013ebeb3          	sltu	t4,t4,s3
    31e2:	41d78633          	sub	a2,a5,t4
    31e6:	8436                	mv	s0,a3
    31e8:	4485                	li	s1,1
    31ea:	bc09                	j	2bfc <__subdf3+0xb0>
    31ec:	00361813          	slli	a6,a2,0x3
    31f0:	01d71793          	slli	a5,a4,0x1d
    31f4:	00385813          	srli	a6,a6,0x3
    31f8:	00f86833          	or	a6,a6,a5
    31fc:	00375793          	srli	a5,a4,0x3
    3200:	b1a5                	j	2e68 <__subdf3+0x31c>
    3202:	01df09b3          	add	s3,t5,t4
    3206:	00e307b3          	add	a5,t1,a4
    320a:	01e9bf33          	sltu	t5,s3,t5
    320e:	01e78633          	add	a2,a5,t5
    3212:	00861793          	slli	a5,a2,0x8
    3216:	c207d8e3          	bgez	a5,2e46 <__subdf3+0x2fa>
    321a:	ff8007b7          	lui	a5,0xff800
    321e:	17fd                	addi	a5,a5,-1
    3220:	8e7d                	and	a2,a2,a5
    3222:	4485                	li	s1,1
    3224:	b10d                	j	2e46 <__subdf3+0x2fa>
    3226:	060e                	slli	a2,a2,0x3
    3228:	01d71813          	slli	a6,a4,0x1d
    322c:	820d                	srli	a2,a2,0x3
    322e:	00c86833          	or	a6,a6,a2
    3232:	00375793          	srli	a5,a4,0x3
    3236:	b12d                	j	2e60 <__subdf3+0x314>
    3238:	00c9e833          	or	a6,s3,a2
    323c:	d00806e3          	beqz	a6,2f48 <__subdf3+0x3fc>
    3240:	b119                	j	2e46 <__subdf3+0x2fa>
    3242:	fe058813          	addi	a6,a1,-32
    3246:	02000793          	li	a5,32
    324a:	010359b3          	srl	s3,t1,a6
    324e:	00f58a63          	beq	a1,a5,3262 <__subdf3+0x716>
    3252:	04000793          	li	a5,64
    3256:	40b785b3          	sub	a1,a5,a1
    325a:	00b31333          	sll	t1,t1,a1
    325e:	006f6f33          	or	t5,t5,t1
    3262:	01e03833          	snez	a6,t5
    3266:	01386833          	or	a6,a6,s3
    326a:	b33d                	j	2f98 <__subdf3+0x44c>
    326c:	4401                	li	s0,0
    326e:	7ff00713          	li	a4,2047
    3272:	000807b7          	lui	a5,0x80
    3276:	bc2d                	j	2cb0 <__subdf3+0x164>
    3278:	01df09b3          	add	s3,t5,t4
    327c:	00e307b3          	add	a5,t1,a4
    3280:	01d9beb3          	sltu	t4,s3,t4
    3284:	01d78633          	add	a2,a5,t4
    3288:	bb69                	j	3022 <__subdf3+0x4d6>

0000328a <__floatsidf>:
    328a:	1141                	addi	sp,sp,-16
    328c:	c606                	sw	ra,12(sp)
    328e:	c422                	sw	s0,8(sp)
    3290:	c226                	sw	s1,4(sp)
    3292:	cd0d                	beqz	a0,32cc <__floatsidf+0x42>
    3294:	41f55793          	srai	a5,a0,0x1f
    3298:	00a7c4b3          	xor	s1,a5,a0
    329c:	8c9d                	sub	s1,s1,a5
    329e:	842a                	mv	s0,a0
    32a0:	8526                	mv	a0,s1
    32a2:	1a9000ef          	jal	ra,3c4a <__clzsi2>
    32a6:	41e00693          	li	a3,1054
    32aa:	8e89                	sub	a3,a3,a0
    32ac:	47a9                	li	a5,10
    32ae:	807d                	srli	s0,s0,0x1f
    32b0:	7ff6f693          	andi	a3,a3,2047
    32b4:	02a7cd63          	blt	a5,a0,32ee <__floatsidf+0x64>
    32b8:	472d                	li	a4,11
    32ba:	8f09                	sub	a4,a4,a0
    32bc:	00e4d7b3          	srl	a5,s1,a4
    32c0:	0555                	addi	a0,a0,21
    32c2:	07b2                	slli	a5,a5,0xc
    32c4:	00a494b3          	sll	s1,s1,a0
    32c8:	83b1                	srli	a5,a5,0xc
    32ca:	a029                	j	32d4 <__floatsidf+0x4a>
    32cc:	4401                	li	s0,0
    32ce:	4681                	li	a3,0
    32d0:	4781                	li	a5,0
    32d2:	4481                	li	s1,0
    32d4:	07b2                	slli	a5,a5,0xc
    32d6:	06d2                	slli	a3,a3,0x14
    32d8:	83b1                	srli	a5,a5,0xc
    32da:	047e                	slli	s0,s0,0x1f
    32dc:	8fd5                	or	a5,a5,a3
    32de:	8fc1                	or	a5,a5,s0
    32e0:	40b2                	lw	ra,12(sp)
    32e2:	4422                	lw	s0,8(sp)
    32e4:	8526                	mv	a0,s1
    32e6:	85be                	mv	a1,a5
    32e8:	4492                	lw	s1,4(sp)
    32ea:	0141                	addi	sp,sp,16
    32ec:	8082                	ret
    32ee:	1555                	addi	a0,a0,-11
    32f0:	00a497b3          	sll	a5,s1,a0
    32f4:	07b2                	slli	a5,a5,0xc
    32f6:	83b1                	srli	a5,a5,0xc
    32f8:	4481                	li	s1,0
    32fa:	bfe9                	j	32d4 <__floatsidf+0x4a>

000032fc <__mulsf3>:
    32fc:	7179                	addi	sp,sp,-48
    32fe:	d422                	sw	s0,40(sp)
    3300:	01755413          	srli	s0,a0,0x17
    3304:	ce4e                	sw	s3,28(sp)
    3306:	cc52                	sw	s4,24(sp)
    3308:	00951993          	slli	s3,a0,0x9
    330c:	d606                	sw	ra,44(sp)
    330e:	d226                	sw	s1,36(sp)
    3310:	d04a                	sw	s2,32(sp)
    3312:	ca56                	sw	s5,20(sp)
    3314:	c85a                	sw	s6,16(sp)
    3316:	0ff47413          	andi	s0,s0,255
    331a:	0099d993          	srli	s3,s3,0x9
    331e:	01f55a13          	srli	s4,a0,0x1f
    3322:	c469                	beqz	s0,33ec <__mulsf3+0xf0>
    3324:	0ff00793          	li	a5,255
    3328:	0ef40863          	beq	s0,a5,3418 <__mulsf3+0x11c>
    332c:	00399793          	slli	a5,s3,0x3
    3330:	04000737          	lui	a4,0x4000
    3334:	00e7e9b3          	or	s3,a5,a4
    3338:	f8140413          	addi	s0,s0,-127 # 7ff81 <_data_lma+0x7b9bd>
    333c:	4481                	li	s1,0
    333e:	4b01                	li	s6,0
    3340:	0175d713          	srli	a4,a1,0x17
    3344:	00959a93          	slli	s5,a1,0x9
    3348:	0ff77713          	andi	a4,a4,255
    334c:	009ada93          	srli	s5,s5,0x9
    3350:	01f5d913          	srli	s2,a1,0x1f
    3354:	cf45                	beqz	a4,340c <__mulsf3+0x110>
    3356:	0ff00793          	li	a5,255
    335a:	02f70c63          	beq	a4,a5,3392 <__mulsf3+0x96>
    335e:	0a8e                	slli	s5,s5,0x3
    3360:	f8170713          	addi	a4,a4,-127 # 3ffff81 <_data_lma+0x3ffb9bd>
    3364:	040007b7          	lui	a5,0x4000
    3368:	00faeab3          	or	s5,s5,a5
    336c:	943a                	add	s0,s0,a4
    336e:	4601                	li	a2,0
    3370:	012a4533          	xor	a0,s4,s2
    3374:	47bd                	li	a5,15
    3376:	86aa                	mv	a3,a0
    3378:	00140593          	addi	a1,s0,1
    337c:	1097e263          	bltu	a5,s1,3480 <__mulsf3+0x184>
    3380:	00001717          	auipc	a4,0x1
    3384:	10470713          	addi	a4,a4,260 # 4484 <OLED_F8x16+0x670>
    3388:	048a                	slli	s1,s1,0x2
    338a:	94ba                	add	s1,s1,a4
    338c:	409c                	lw	a5,0(s1)
    338e:	97ba                	add	a5,a5,a4
    3390:	8782                	jr	a5
    3392:	0ff40413          	addi	s0,s0,255
    3396:	0c0a9863          	bnez	s5,3466 <__mulsf3+0x16a>
    339a:	0024e493          	ori	s1,s1,2
    339e:	4609                	li	a2,2
    33a0:	bfc1                	j	3370 <__mulsf3+0x74>
    33a2:	4501                	li	a0,0
    33a4:	0ff00713          	li	a4,255
    33a8:	004007b7          	lui	a5,0x400
    33ac:	50b2                	lw	ra,44(sp)
    33ae:	5422                	lw	s0,40(sp)
    33b0:	07a6                	slli	a5,a5,0x9
    33b2:	075e                	slli	a4,a4,0x17
    33b4:	83a5                	srli	a5,a5,0x9
    33b6:	057e                	slli	a0,a0,0x1f
    33b8:	8fd9                	or	a5,a5,a4
    33ba:	5492                	lw	s1,36(sp)
    33bc:	5902                	lw	s2,32(sp)
    33be:	49f2                	lw	s3,28(sp)
    33c0:	4a62                	lw	s4,24(sp)
    33c2:	4ad2                	lw	s5,20(sp)
    33c4:	4b42                	lw	s6,16(sp)
    33c6:	8d5d                	or	a0,a0,a5
    33c8:	6145                	addi	sp,sp,48
    33ca:	8082                	ret
    33cc:	86ca                	mv	a3,s2
    33ce:	89d6                	mv	s3,s5
    33d0:	8b32                	mv	s6,a2
    33d2:	4789                	li	a5,2
    33d4:	0afb0163          	beq	s6,a5,3476 <__mulsf3+0x17a>
    33d8:	478d                	li	a5,3
    33da:	fcfb04e3          	beq	s6,a5,33a2 <__mulsf3+0xa6>
    33de:	4785                	li	a5,1
    33e0:	8536                	mv	a0,a3
    33e2:	1afb1263          	bne	s6,a5,3586 <__mulsf3+0x28a>
    33e6:	4701                	li	a4,0
    33e8:	4781                	li	a5,0
    33ea:	b7c9                	j	33ac <__mulsf3+0xb0>
    33ec:	04099e63          	bnez	s3,3448 <__mulsf3+0x14c>
    33f0:	0175d713          	srli	a4,a1,0x17
    33f4:	00959a93          	slli	s5,a1,0x9
    33f8:	0ff77713          	andi	a4,a4,255
    33fc:	4491                	li	s1,4
    33fe:	4401                	li	s0,0
    3400:	4b05                	li	s6,1
    3402:	009ada93          	srli	s5,s5,0x9
    3406:	01f5d913          	srli	s2,a1,0x1f
    340a:	f731                	bnez	a4,3356 <__mulsf3+0x5a>
    340c:	000a9d63          	bnez	s5,3426 <__mulsf3+0x12a>
    3410:	0014e493          	ori	s1,s1,1
    3414:	4605                	li	a2,1
    3416:	bfa9                	j	3370 <__mulsf3+0x74>
    3418:	02099363          	bnez	s3,343e <__mulsf3+0x142>
    341c:	44a1                	li	s1,8
    341e:	0ff00413          	li	s0,255
    3422:	4b09                	li	s6,2
    3424:	bf31                	j	3340 <__mulsf3+0x44>
    3426:	8556                	mv	a0,s5
    3428:	023000ef          	jal	ra,3c4a <__clzsi2>
    342c:	ffb50793          	addi	a5,a0,-5 # 7ffffb <_data_lma+0x7fba37>
    3430:	8c09                	sub	s0,s0,a0
    3432:	00fa9ab3          	sll	s5,s5,a5
    3436:	f8a40413          	addi	s0,s0,-118
    343a:	4601                	li	a2,0
    343c:	bf15                	j	3370 <__mulsf3+0x74>
    343e:	44b1                	li	s1,12
    3440:	0ff00413          	li	s0,255
    3444:	4b0d                	li	s6,3
    3446:	bded                	j	3340 <__mulsf3+0x44>
    3448:	854e                	mv	a0,s3
    344a:	c62e                	sw	a1,12(sp)
    344c:	7fe000ef          	jal	ra,3c4a <__clzsi2>
    3450:	ffb50793          	addi	a5,a0,-5
    3454:	f8a00413          	li	s0,-118
    3458:	00f999b3          	sll	s3,s3,a5
    345c:	8c09                	sub	s0,s0,a0
    345e:	4481                	li	s1,0
    3460:	4b01                	li	s6,0
    3462:	45b2                	lw	a1,12(sp)
    3464:	bdf1                	j	3340 <__mulsf3+0x44>
    3466:	0034e493          	ori	s1,s1,3
    346a:	460d                	li	a2,3
    346c:	b711                	j	3370 <__mulsf3+0x74>
    346e:	4789                	li	a5,2
    3470:	86d2                	mv	a3,s4
    3472:	f6fb13e3          	bne	s6,a5,33d8 <__mulsf3+0xdc>
    3476:	8536                	mv	a0,a3
    3478:	0ff00713          	li	a4,255
    347c:	4781                	li	a5,0
    347e:	b73d                	j	33ac <__mulsf3+0xb0>
    3480:	6341                	lui	t1,0x10
    3482:	fff30693          	addi	a3,t1,-1 # ffff <_data_lma+0xba3b>
    3486:	0109d613          	srli	a2,s3,0x10
    348a:	010ad893          	srli	a7,s5,0x10
    348e:	00d9f7b3          	and	a5,s3,a3
    3492:	00dafab3          	and	s5,s5,a3
    3496:	03578833          	mul	a6,a5,s5
    349a:	02f889b3          	mul	s3,a7,a5
    349e:	01085713          	srli	a4,a6,0x10
    34a2:	03560ab3          	mul	s5,a2,s5
    34a6:	99d6                	add	s3,s3,s5
    34a8:	974e                	add	a4,a4,s3
    34aa:	03160633          	mul	a2,a2,a7
    34ae:	01577363          	bgeu	a4,s5,34b4 <__mulsf3+0x1b8>
    34b2:	961a                	add	a2,a2,t1
    34b4:	67c1                	lui	a5,0x10
    34b6:	17fd                	addi	a5,a5,-1
    34b8:	00f776b3          	and	a3,a4,a5
    34bc:	00f87833          	and	a6,a6,a5
    34c0:	06c2                	slli	a3,a3,0x10
    34c2:	96c2                	add	a3,a3,a6
    34c4:	00669993          	slli	s3,a3,0x6
    34c8:	01075793          	srli	a5,a4,0x10
    34cc:	013039b3          	snez	s3,s3
    34d0:	82e9                	srli	a3,a3,0x1a
    34d2:	97b2                	add	a5,a5,a2
    34d4:	079a                	slli	a5,a5,0x6
    34d6:	00d9e6b3          	or	a3,s3,a3
    34da:	00d7e9b3          	or	s3,a5,a3
    34de:	00499793          	slli	a5,s3,0x4
    34e2:	0007d963          	bgez	a5,34f4 <__mulsf3+0x1f8>
    34e6:	0019d713          	srli	a4,s3,0x1
    34ea:	0019f793          	andi	a5,s3,1
    34ee:	00f769b3          	or	s3,a4,a5
    34f2:	842e                	mv	s0,a1
    34f4:	07f40713          	addi	a4,s0,127
    34f8:	04e05063          	blez	a4,3538 <__mulsf3+0x23c>
    34fc:	0079f793          	andi	a5,s3,7
    3500:	c799                	beqz	a5,350e <__mulsf3+0x212>
    3502:	00f9f793          	andi	a5,s3,15
    3506:	4691                	li	a3,4
    3508:	00d78363          	beq	a5,a3,350e <__mulsf3+0x212>
    350c:	0991                	addi	s3,s3,4
    350e:	00499793          	slli	a5,s3,0x4
    3512:	0007d963          	bgez	a5,3524 <__mulsf3+0x228>
    3516:	f80007b7          	lui	a5,0xf8000
    351a:	17fd                	addi	a5,a5,-1
    351c:	00f9f9b3          	and	s3,s3,a5
    3520:	08040713          	addi	a4,s0,128
    3524:	0fe00793          	li	a5,254
    3528:	04e7cb63          	blt	a5,a4,357e <__mulsf3+0x282>
    352c:	00699793          	slli	a5,s3,0x6
    3530:	83a5                	srli	a5,a5,0x9
    3532:	0ff77713          	andi	a4,a4,255
    3536:	bd9d                	j	33ac <__mulsf3+0xb0>
    3538:	4785                	li	a5,1
    353a:	40e786b3          	sub	a3,a5,a4
    353e:	c711                	beqz	a4,354a <__mulsf3+0x24e>
    3540:	466d                	li	a2,27
    3542:	4701                	li	a4,0
    3544:	4781                	li	a5,0
    3546:	e6d643e3          	blt	a2,a3,33ac <__mulsf3+0xb0>
    354a:	09e40713          	addi	a4,s0,158
    354e:	00e99733          	sll	a4,s3,a4
    3552:	00e03733          	snez	a4,a4
    3556:	00d9d7b3          	srl	a5,s3,a3
    355a:	8fd9                	or	a5,a5,a4
    355c:	0077f713          	andi	a4,a5,7
    3560:	c719                	beqz	a4,356e <__mulsf3+0x272>
    3562:	00f7f713          	andi	a4,a5,15
    3566:	4691                	li	a3,4
    3568:	00d70363          	beq	a4,a3,356e <__mulsf3+0x272>
    356c:	0791                	addi	a5,a5,4
    356e:	00579713          	slli	a4,a5,0x5
    3572:	00074c63          	bltz	a4,358a <__mulsf3+0x28e>
    3576:	079a                	slli	a5,a5,0x6
    3578:	83a5                	srli	a5,a5,0x9
    357a:	4701                	li	a4,0
    357c:	bd05                	j	33ac <__mulsf3+0xb0>
    357e:	0ff00713          	li	a4,255
    3582:	4781                	li	a5,0
    3584:	b525                	j	33ac <__mulsf3+0xb0>
    3586:	842e                	mv	s0,a1
    3588:	b7b5                	j	34f4 <__mulsf3+0x1f8>
    358a:	4705                	li	a4,1
    358c:	4781                	li	a5,0
    358e:	bd39                	j	33ac <__mulsf3+0xb0>

00003590 <__subsf3>:
    3590:	00800737          	lui	a4,0x800
    3594:	1141                	addi	sp,sp,-16
    3596:	177d                	addi	a4,a4,-1
    3598:	01755693          	srli	a3,a0,0x17
    359c:	0175d813          	srli	a6,a1,0x17
    35a0:	00a777b3          	and	a5,a4,a0
    35a4:	0ff6f693          	andi	a3,a3,255
    35a8:	01f55e93          	srli	t4,a0,0x1f
    35ac:	00b77633          	and	a2,a4,a1
    35b0:	c226                	sw	s1,4(sp)
    35b2:	c04a                	sw	s2,0(sp)
    35b4:	0ff87813          	andi	a6,a6,255
    35b8:	c606                	sw	ra,12(sp)
    35ba:	c422                	sw	s0,8(sp)
    35bc:	0ff00313          	li	t1,255
    35c0:	8e3e                	mv	t3,a5
    35c2:	8936                	mv	s2,a3
    35c4:	84f6                	mv	s1,t4
    35c6:	00379f13          	slli	t5,a5,0x3
    35ca:	81fd                	srli	a1,a1,0x1f
    35cc:	00361513          	slli	a0,a2,0x3
    35d0:	410688b3          	sub	a7,a3,a6
    35d4:	10680263          	beq	a6,t1,36d8 <__subsf3+0x148>
    35d8:	0015c593          	xori	a1,a1,1
    35dc:	10be8c63          	beq	t4,a1,36f4 <__subsf3+0x164>
    35e0:	0d105463          	blez	a7,36a8 <__subsf3+0x118>
    35e4:	10081063          	bnez	a6,36e4 <__subsf3+0x154>
    35e8:	1e050463          	beqz	a0,37d0 <__subsf3+0x240>
    35ec:	18fd                	addi	a7,a7,-1
    35ee:	40af07b3          	sub	a5,t5,a0
    35f2:	02088663          	beqz	a7,361e <__subsf3+0x8e>
    35f6:	0ff00793          	li	a5,255
    35fa:	16f68863          	beq	a3,a5,376a <__subsf3+0x1da>
    35fe:	47ed                	li	a5,27
    3600:	2917c763          	blt	a5,a7,388e <__subsf3+0x2fe>
    3604:	02000713          	li	a4,32
    3608:	41170733          	sub	a4,a4,a7
    360c:	00e51733          	sll	a4,a0,a4
    3610:	011557b3          	srl	a5,a0,a7
    3614:	00e03733          	snez	a4,a4
    3618:	8fd9                	or	a5,a5,a4
    361a:	40ff07b3          	sub	a5,t5,a5
    361e:	00579713          	slli	a4,a5,0x5
    3622:	1a075163          	bgez	a4,37c4 <__subsf3+0x234>
    3626:	04000437          	lui	s0,0x4000
    362a:	147d                	addi	s0,s0,-1
    362c:	8c7d                	and	s0,s0,a5
    362e:	8522                	mv	a0,s0
    3630:	2d29                	jal	3c4a <__clzsi2>
    3632:	156d                	addi	a0,a0,-5
    3634:	00a417b3          	sll	a5,s0,a0
    3638:	1b254e63          	blt	a0,s2,37f4 <__subsf3+0x264>
    363c:	41250533          	sub	a0,a0,s2
    3640:	00150413          	addi	s0,a0,1
    3644:	02000713          	li	a4,32
    3648:	8f01                	sub	a4,a4,s0
    364a:	00e79733          	sll	a4,a5,a4
    364e:	00e03733          	snez	a4,a4
    3652:	0087d7b3          	srl	a5,a5,s0
    3656:	8fd9                	or	a5,a5,a4
    3658:	4901                	li	s2,0
    365a:	0077f713          	andi	a4,a5,7
    365e:	c719                	beqz	a4,366c <__subsf3+0xdc>
    3660:	00f7f713          	andi	a4,a5,15
    3664:	4691                	li	a3,4
    3666:	00d70363          	beq	a4,a3,366c <__subsf3+0xdc>
    366a:	0791                	addi	a5,a5,4
    366c:	00579713          	slli	a4,a5,0x5
    3670:	14075e63          	bgez	a4,37cc <__subsf3+0x23c>
    3674:	00190693          	addi	a3,s2,1 # 800001 <_data_lma+0x7fba3d>
    3678:	0ff00713          	li	a4,255
    367c:	0014fe93          	andi	t4,s1,1
    3680:	16e68663          	beq	a3,a4,37ec <__subsf3+0x25c>
    3684:	079a                	slli	a5,a5,0x6
    3686:	83a5                	srli	a5,a5,0x9
    3688:	0ff6f693          	andi	a3,a3,255
    368c:	07a6                	slli	a5,a5,0x9
    368e:	40b2                	lw	ra,12(sp)
    3690:	4422                	lw	s0,8(sp)
    3692:	0097d513          	srli	a0,a5,0x9
    3696:	06de                	slli	a3,a3,0x17
    3698:	01fe9793          	slli	a5,t4,0x1f
    369c:	8d55                	or	a0,a0,a3
    369e:	4492                	lw	s1,4(sp)
    36a0:	4902                	lw	s2,0(sp)
    36a2:	8d5d                	or	a0,a0,a5
    36a4:	0141                	addi	sp,sp,16
    36a6:	8082                	ret
    36a8:	0a089263          	bnez	a7,374c <__subsf3+0x1bc>
    36ac:	00168713          	addi	a4,a3,1 # 800001 <_data_lma+0x7fba3d>
    36b0:	0fe77713          	andi	a4,a4,254
    36b4:	14071b63          	bnez	a4,380a <__subsf3+0x27a>
    36b8:	22069463          	bnez	a3,38e0 <__subsf3+0x350>
    36bc:	200f0263          	beqz	t5,38c0 <__subsf3+0x330>
    36c0:	d571                	beqz	a0,368c <__subsf3+0xfc>
    36c2:	40af07b3          	sub	a5,t5,a0
    36c6:	00579713          	slli	a4,a5,0x5
    36ca:	22075563          	bgez	a4,38f4 <__subsf3+0x364>
    36ce:	41e507b3          	sub	a5,a0,t5
    36d2:	4901                	li	s2,0
    36d4:	84ae                	mv	s1,a1
    36d6:	b751                	j	365a <__subsf3+0xca>
    36d8:	f00500e3          	beqz	a0,35d8 <__subsf3+0x48>
    36dc:	0abe8a63          	beq	t4,a1,3790 <__subsf3+0x200>
    36e0:	fd1054e3          	blez	a7,36a8 <__subsf3+0x118>
    36e4:	0ff00793          	li	a5,255
    36e8:	08f68163          	beq	a3,a5,376a <__subsf3+0x1da>
    36ec:	040007b7          	lui	a5,0x4000
    36f0:	8d5d                	or	a0,a0,a5
    36f2:	b731                	j	35fe <__subsf3+0x6e>
    36f4:	09105e63          	blez	a7,3790 <__subsf3+0x200>
    36f8:	08080163          	beqz	a6,377a <__subsf3+0x1ea>
    36fc:	0ff00793          	li	a5,255
    3700:	06f68563          	beq	a3,a5,376a <__subsf3+0x1da>
    3704:	040007b7          	lui	a5,0x4000
    3708:	8d5d                	or	a0,a0,a5
    370a:	47ed                	li	a5,27
    370c:	1f17c063          	blt	a5,a7,38ec <__subsf3+0x35c>
    3710:	02000713          	li	a4,32
    3714:	41170733          	sub	a4,a4,a7
    3718:	00e51733          	sll	a4,a0,a4
    371c:	011557b3          	srl	a5,a0,a7
    3720:	00e03733          	snez	a4,a4
    3724:	8fd9                	or	a5,a5,a4
    3726:	97fa                	add	a5,a5,t5
    3728:	00579713          	slli	a4,a5,0x5
    372c:	08075c63          	bgez	a4,37c4 <__subsf3+0x234>
    3730:	0905                	addi	s2,s2,1
    3732:	0ff00713          	li	a4,255
    3736:	0ae90b63          	beq	s2,a4,37ec <__subsf3+0x25c>
    373a:	7e0006b7          	lui	a3,0x7e000
    373e:	0017d713          	srli	a4,a5,0x1
    3742:	16fd                	addi	a3,a3,-1
    3744:	8b85                	andi	a5,a5,1
    3746:	8f75                	and	a4,a4,a3
    3748:	8fd9                	or	a5,a5,a4
    374a:	bf01                	j	365a <__subsf3+0xca>
    374c:	40d80733          	sub	a4,a6,a3
    3750:	10069563          	bnez	a3,385a <__subsf3+0x2ca>
    3754:	140f0d63          	beqz	t5,38ae <__subsf3+0x31e>
    3758:	177d                	addi	a4,a4,-1
    375a:	1a070363          	beqz	a4,3900 <__subsf3+0x370>
    375e:	0ff00793          	li	a5,255
    3762:	10f81463          	bne	a6,a5,386a <__subsf3+0x2da>
    3766:	84ae                	mv	s1,a1
    3768:	8e32                	mv	t3,a2
    376a:	060e0f63          	beqz	t3,37e8 <__subsf3+0x258>
    376e:	4e81                	li	t4,0
    3770:	0ff00693          	li	a3,255
    3774:	004007b7          	lui	a5,0x400
    3778:	bf11                	j	368c <__subsf3+0xfc>
    377a:	c939                	beqz	a0,37d0 <__subsf3+0x240>
    377c:	18fd                	addi	a7,a7,-1
    377e:	00af07b3          	add	a5,t5,a0
    3782:	fa0883e3          	beqz	a7,3728 <__subsf3+0x198>
    3786:	0ff00793          	li	a5,255
    378a:	f8f690e3          	bne	a3,a5,370a <__subsf3+0x17a>
    378e:	bff1                	j	376a <__subsf3+0x1da>
    3790:	08089963          	bnez	a7,3822 <__subsf3+0x292>
    3794:	00168913          	addi	s2,a3,1 # 7e000001 <_eusrstack+0x5dffb001>
    3798:	0fe97713          	andi	a4,s2,254
    379c:	12071663          	bnez	a4,38c8 <__subsf3+0x338>
    37a0:	10069b63          	bnez	a3,38b6 <__subsf3+0x326>
    37a4:	160f0363          	beqz	t5,390a <__subsf3+0x37a>
    37a8:	ee0502e3          	beqz	a0,368c <__subsf3+0xfc>
    37ac:	00af07b3          	add	a5,t5,a0
    37b0:	00579713          	slli	a4,a5,0x5
    37b4:	4901                	li	s2,0
    37b6:	00075763          	bgez	a4,37c4 <__subsf3+0x234>
    37ba:	fc000737          	lui	a4,0xfc000
    37be:	177d                	addi	a4,a4,-1
    37c0:	8ff9                	and	a5,a5,a4
    37c2:	4905                	li	s2,1
    37c4:	0077f713          	andi	a4,a5,7
    37c8:	e8071ce3          	bnez	a4,3660 <__subsf3+0xd0>
    37cc:	0037de13          	srli	t3,a5,0x3
    37d0:	0ff00793          	li	a5,255
    37d4:	f8f90be3          	beq	s2,a5,376a <__subsf3+0x1da>
    37d8:	009e1793          	slli	a5,t3,0x9
    37dc:	83a5                	srli	a5,a5,0x9
    37de:	0ff97693          	andi	a3,s2,255
    37e2:	0014fe93          	andi	t4,s1,1
    37e6:	b55d                	j	368c <__subsf3+0xfc>
    37e8:	0014fe93          	andi	t4,s1,1
    37ec:	0ff00693          	li	a3,255
    37f0:	4781                	li	a5,0
    37f2:	bd69                	j	368c <__subsf3+0xfc>
    37f4:	fc000737          	lui	a4,0xfc000
    37f8:	177d                	addi	a4,a4,-1
    37fa:	8ff9                	and	a5,a5,a4
    37fc:	0077f713          	andi	a4,a5,7
    3800:	40a90933          	sub	s2,s2,a0
    3804:	e4071ee3          	bnez	a4,3660 <__subsf3+0xd0>
    3808:	b7d1                	j	37cc <__subsf3+0x23c>
    380a:	40af0433          	sub	s0,t5,a0
    380e:	00541793          	slli	a5,s0,0x5
    3812:	0c07c363          	bltz	a5,38d8 <__subsf3+0x348>
    3816:	e0041ce3          	bnez	s0,362e <__subsf3+0x9e>
    381a:	4e81                	li	t4,0
    381c:	4681                	li	a3,0
    381e:	4781                	li	a5,0
    3820:	b5b5                	j	368c <__subsf3+0xfc>
    3822:	40d80733          	sub	a4,a6,a3
    3826:	c6b5                	beqz	a3,3892 <__subsf3+0x302>
    3828:	0ff00793          	li	a5,255
    382c:	f2f80ee3          	beq	a6,a5,3768 <__subsf3+0x1d8>
    3830:	040007b7          	lui	a5,0x4000
    3834:	00ff6f33          	or	t5,t5,a5
    3838:	47ed                	li	a5,27
    383a:	0ce7cd63          	blt	a5,a4,3914 <__subsf3+0x384>
    383e:	02000793          	li	a5,32
    3842:	8f99                	sub	a5,a5,a4
    3844:	00ff17b3          	sll	a5,t5,a5
    3848:	00ef5733          	srl	a4,t5,a4
    384c:	00f037b3          	snez	a5,a5
    3850:	8f5d                	or	a4,a4,a5
    3852:	00a707b3          	add	a5,a4,a0
    3856:	8942                	mv	s2,a6
    3858:	bdc1                	j	3728 <__subsf3+0x198>
    385a:	0ff00793          	li	a5,255
    385e:	f0f804e3          	beq	a6,a5,3766 <__subsf3+0x1d6>
    3862:	040007b7          	lui	a5,0x4000
    3866:	00ff6f33          	or	t5,t5,a5
    386a:	47ed                	li	a5,27
    386c:	08e7c263          	blt	a5,a4,38f0 <__subsf3+0x360>
    3870:	02000793          	li	a5,32
    3874:	8f99                	sub	a5,a5,a4
    3876:	00ff17b3          	sll	a5,t5,a5
    387a:	00ef5733          	srl	a4,t5,a4
    387e:	00f037b3          	snez	a5,a5
    3882:	8fd9                	or	a5,a5,a4
    3884:	40f507b3          	sub	a5,a0,a5
    3888:	8942                	mv	s2,a6
    388a:	84ae                	mv	s1,a1
    388c:	bb49                	j	361e <__subsf3+0x8e>
    388e:	4785                	li	a5,1
    3890:	b369                	j	361a <__subsf3+0x8a>
    3892:	060f0e63          	beqz	t5,390e <__subsf3+0x37e>
    3896:	177d                	addi	a4,a4,-1
    3898:	00af07b3          	add	a5,t5,a0
    389c:	8942                	mv	s2,a6
    389e:	e80705e3          	beqz	a4,3728 <__subsf3+0x198>
    38a2:	0ff00793          	li	a5,255
    38a6:	f8f819e3          	bne	a6,a5,3838 <__subsf3+0x2a8>
    38aa:	8e32                	mv	t3,a2
    38ac:	bd7d                	j	376a <__subsf3+0x1da>
    38ae:	8e32                	mv	t3,a2
    38b0:	8942                	mv	s2,a6
    38b2:	84ae                	mv	s1,a1
    38b4:	bf31                	j	37d0 <__subsf3+0x240>
    38b6:	ea0f09e3          	beqz	t5,3768 <__subsf3+0x1d8>
    38ba:	ea0508e3          	beqz	a0,376a <__subsf3+0x1da>
    38be:	bd45                	j	376e <__subsf3+0x1de>
    38c0:	cd0d                	beqz	a0,38fa <__subsf3+0x36a>
    38c2:	8eae                	mv	t4,a1
    38c4:	87b2                	mv	a5,a2
    38c6:	b3d9                	j	368c <__subsf3+0xfc>
    38c8:	0ff00793          	li	a5,255
    38cc:	f2f900e3          	beq	s2,a5,37ec <__subsf3+0x25c>
    38d0:	00af07b3          	add	a5,t5,a0
    38d4:	8385                	srli	a5,a5,0x1
    38d6:	b5fd                	j	37c4 <__subsf3+0x234>
    38d8:	41e50433          	sub	s0,a0,t5
    38dc:	84ae                	mv	s1,a1
    38de:	bb81                	j	362e <__subsf3+0x9e>
    38e0:	fc0f1de3          	bnez	t5,38ba <__subsf3+0x32a>
    38e4:	e80505e3          	beqz	a0,376e <__subsf3+0x1de>
    38e8:	84ae                	mv	s1,a1
    38ea:	bdbd                	j	3768 <__subsf3+0x1d8>
    38ec:	4785                	li	a5,1
    38ee:	bd25                	j	3726 <__subsf3+0x196>
    38f0:	4785                	li	a5,1
    38f2:	bf49                	j	3884 <__subsf3+0x2f4>
    38f4:	4901                	li	s2,0
    38f6:	ec0797e3          	bnez	a5,37c4 <__subsf3+0x234>
    38fa:	4e81                	li	t4,0
    38fc:	4781                	li	a5,0
    38fe:	b379                	j	368c <__subsf3+0xfc>
    3900:	41e507b3          	sub	a5,a0,t5
    3904:	8942                	mv	s2,a6
    3906:	84ae                	mv	s1,a1
    3908:	bb19                	j	361e <__subsf3+0x8e>
    390a:	87b2                	mv	a5,a2
    390c:	b341                	j	368c <__subsf3+0xfc>
    390e:	8e32                	mv	t3,a2
    3910:	8942                	mv	s2,a6
    3912:	bd7d                	j	37d0 <__subsf3+0x240>
    3914:	4705                	li	a4,1
    3916:	bf35                	j	3852 <__subsf3+0x2c2>

00003918 <__fixunssfsi>:
    3918:	01755713          	srli	a4,a0,0x17
    391c:	00800637          	lui	a2,0x800
    3920:	fff60793          	addi	a5,a2,-1 # 7fffff <_data_lma+0x7fba3b>
    3924:	0ff77713          	andi	a4,a4,255
    3928:	07e00593          	li	a1,126
    392c:	00a7f6b3          	and	a3,a5,a0
    3930:	01f55793          	srli	a5,a0,0x1f
    3934:	4501                	li	a0,0
    3936:	00e5f463          	bgeu	a1,a4,393e <__fixunssfsi+0x26>
    393a:	c399                	beqz	a5,3940 <__fixunssfsi+0x28>
    393c:	8082                	ret
    393e:	8082                	ret
    3940:	09e00793          	li	a5,158
    3944:	557d                	li	a0,-1
    3946:	fee7ebe3          	bltu	a5,a4,393c <__fixunssfsi+0x24>
    394a:	09500593          	li	a1,149
    394e:	00c6e7b3          	or	a5,a3,a2
    3952:	00e5d763          	bge	a1,a4,3960 <__fixunssfsi+0x48>
    3956:	f6a70713          	addi	a4,a4,-150 # fbffff6a <_eusrstack+0xdbffaf6a>
    395a:	00e79533          	sll	a0,a5,a4
    395e:	8082                	ret
    3960:	09600513          	li	a0,150
    3964:	40e50733          	sub	a4,a0,a4
    3968:	00e7d533          	srl	a0,a5,a4
    396c:	8082                	ret

0000396e <__floatsisf>:
    396e:	1141                	addi	sp,sp,-16
    3970:	c606                	sw	ra,12(sp)
    3972:	c422                	sw	s0,8(sp)
    3974:	c226                	sw	s1,4(sp)
    3976:	cd0d                	beqz	a0,39b0 <__floatsisf+0x42>
    3978:	41f55793          	srai	a5,a0,0x1f
    397c:	00a7c433          	xor	s0,a5,a0
    3980:	8c1d                	sub	s0,s0,a5
    3982:	84aa                	mv	s1,a0
    3984:	8522                	mv	a0,s0
    3986:	24d1                	jal	3c4a <__clzsi2>
    3988:	09e00793          	li	a5,158
    398c:	40a78733          	sub	a4,a5,a0
    3990:	09600793          	li	a5,150
    3994:	80fd                	srli	s1,s1,0x1f
    3996:	02e7cc63          	blt	a5,a4,39ce <__floatsisf+0x60>
    399a:	46a1                	li	a3,8
    399c:	0ff77793          	andi	a5,a4,255
    39a0:	00a6d563          	bge	a3,a0,39aa <__floatsisf+0x3c>
    39a4:	1561                	addi	a0,a0,-8
    39a6:	00a41433          	sll	s0,s0,a0
    39aa:	0426                	slli	s0,s0,0x9
    39ac:	8025                	srli	s0,s0,0x9
    39ae:	a021                	j	39b6 <__floatsisf+0x48>
    39b0:	4481                	li	s1,0
    39b2:	4781                	li	a5,0
    39b4:	4401                	li	s0,0
    39b6:	0426                	slli	s0,s0,0x9
    39b8:	00945513          	srli	a0,s0,0x9
    39bc:	40b2                	lw	ra,12(sp)
    39be:	4422                	lw	s0,8(sp)
    39c0:	07de                	slli	a5,a5,0x17
    39c2:	04fe                	slli	s1,s1,0x1f
    39c4:	8d5d                	or	a0,a0,a5
    39c6:	8d45                	or	a0,a0,s1
    39c8:	4492                	lw	s1,4(sp)
    39ca:	0141                	addi	sp,sp,16
    39cc:	8082                	ret
    39ce:	09900793          	li	a5,153
    39d2:	00e7dd63          	bge	a5,a4,39ec <__floatsisf+0x7e>
    39d6:	01b50793          	addi	a5,a0,27
    39da:	4695                	li	a3,5
    39dc:	00f417b3          	sll	a5,s0,a5
    39e0:	8e89                	sub	a3,a3,a0
    39e2:	00d45433          	srl	s0,s0,a3
    39e6:	00f037b3          	snez	a5,a5
    39ea:	8c5d                	or	s0,s0,a5
    39ec:	4795                	li	a5,5
    39ee:	00a7d663          	bge	a5,a0,39fa <__floatsisf+0x8c>
    39f2:	ffb50793          	addi	a5,a0,-5
    39f6:	00f41433          	sll	s0,s0,a5
    39fa:	fc0006b7          	lui	a3,0xfc000
    39fe:	16fd                	addi	a3,a3,-1
    3a00:	00747793          	andi	a5,s0,7
    3a04:	00d47633          	and	a2,s0,a3
    3a08:	c385                	beqz	a5,3a28 <__floatsisf+0xba>
    3a0a:	00f47793          	andi	a5,s0,15
    3a0e:	4591                	li	a1,4
    3a10:	00b78c63          	beq	a5,a1,3a28 <__floatsisf+0xba>
    3a14:	0611                	addi	a2,a2,4
    3a16:	00561793          	slli	a5,a2,0x5
    3a1a:	0007d763          	bgez	a5,3a28 <__floatsisf+0xba>
    3a1e:	09f00793          	li	a5,159
    3a22:	8e75                	and	a2,a2,a3
    3a24:	40a78733          	sub	a4,a5,a0
    3a28:	00661413          	slli	s0,a2,0x6
    3a2c:	8025                	srli	s0,s0,0x9
    3a2e:	0ff77793          	andi	a5,a4,255
    3a32:	b751                	j	39b6 <__floatsisf+0x48>

00003a34 <__extendsfdf2>:
    3a34:	01755713          	srli	a4,a0,0x17
    3a38:	0ff77713          	andi	a4,a4,255
    3a3c:	1141                	addi	sp,sp,-16
    3a3e:	00170793          	addi	a5,a4,1
    3a42:	c422                	sw	s0,8(sp)
    3a44:	c226                	sw	s1,4(sp)
    3a46:	00951413          	slli	s0,a0,0x9
    3a4a:	c606                	sw	ra,12(sp)
    3a4c:	0fe7f793          	andi	a5,a5,254
    3a50:	8025                	srli	s0,s0,0x9
    3a52:	01f55493          	srli	s1,a0,0x1f
    3a56:	c785                	beqz	a5,3a7e <__extendsfdf2+0x4a>
    3a58:	00345793          	srli	a5,s0,0x3
    3a5c:	38070713          	addi	a4,a4,896
    3a60:	0476                	slli	s0,s0,0x1d
    3a62:	07b2                	slli	a5,a5,0xc
    3a64:	0752                	slli	a4,a4,0x14
    3a66:	83b1                	srli	a5,a5,0xc
    3a68:	01f49513          	slli	a0,s1,0x1f
    3a6c:	8fd9                	or	a5,a5,a4
    3a6e:	8fc9                	or	a5,a5,a0
    3a70:	40b2                	lw	ra,12(sp)
    3a72:	8522                	mv	a0,s0
    3a74:	4422                	lw	s0,8(sp)
    3a76:	4492                	lw	s1,4(sp)
    3a78:	85be                	mv	a1,a5
    3a7a:	0141                	addi	sp,sp,16
    3a7c:	8082                	ret
    3a7e:	eb05                	bnez	a4,3aae <__extendsfdf2+0x7a>
    3a80:	c439                	beqz	s0,3ace <__extendsfdf2+0x9a>
    3a82:	8522                	mv	a0,s0
    3a84:	22d9                	jal	3c4a <__clzsi2>
    3a86:	47a9                	li	a5,10
    3a88:	04a7c663          	blt	a5,a0,3ad4 <__extendsfdf2+0xa0>
    3a8c:	472d                	li	a4,11
    3a8e:	8f09                	sub	a4,a4,a0
    3a90:	01550793          	addi	a5,a0,21
    3a94:	00e45733          	srl	a4,s0,a4
    3a98:	00f41433          	sll	s0,s0,a5
    3a9c:	00c71793          	slli	a5,a4,0xc
    3aa0:	38900713          	li	a4,905
    3aa4:	8f09                	sub	a4,a4,a0
    3aa6:	83b1                	srli	a5,a5,0xc
    3aa8:	7ff77713          	andi	a4,a4,2047
    3aac:	bf5d                	j	3a62 <__extendsfdf2+0x2e>
    3aae:	cc01                	beqz	s0,3ac6 <__extendsfdf2+0x92>
    3ab0:	00345713          	srli	a4,s0,0x3
    3ab4:	000807b7          	lui	a5,0x80
    3ab8:	8fd9                	or	a5,a5,a4
    3aba:	07b2                	slli	a5,a5,0xc
    3abc:	0476                	slli	s0,s0,0x1d
    3abe:	83b1                	srli	a5,a5,0xc
    3ac0:	7ff00713          	li	a4,2047
    3ac4:	bf79                	j	3a62 <__extendsfdf2+0x2e>
    3ac6:	7ff00713          	li	a4,2047
    3aca:	4781                	li	a5,0
    3acc:	bf59                	j	3a62 <__extendsfdf2+0x2e>
    3ace:	4701                	li	a4,0
    3ad0:	4781                	li	a5,0
    3ad2:	bf41                	j	3a62 <__extendsfdf2+0x2e>
    3ad4:	ff550713          	addi	a4,a0,-11
    3ad8:	00e41733          	sll	a4,s0,a4
    3adc:	4401                	li	s0,0
    3ade:	bf7d                	j	3a9c <__extendsfdf2+0x68>

00003ae0 <__truncdfsf2>:
    3ae0:	0145d693          	srli	a3,a1,0x14
    3ae4:	00c59793          	slli	a5,a1,0xc
    3ae8:	7ff6f693          	andi	a3,a3,2047
    3aec:	83b1                	srli	a5,a5,0xc
    3aee:	00168613          	addi	a2,a3,1 # fc000001 <_eusrstack+0xdbffb001>
    3af2:	078e                	slli	a5,a5,0x3
    3af4:	01d55713          	srli	a4,a0,0x1d
    3af8:	7fe67613          	andi	a2,a2,2046
    3afc:	81fd                	srli	a1,a1,0x1f
    3afe:	8f5d                	or	a4,a4,a5
    3b00:	00351893          	slli	a7,a0,0x3
    3b04:	ce35                	beqz	a2,3b80 <__truncdfsf2+0xa0>
    3b06:	c8068813          	addi	a6,a3,-896
    3b0a:	0fe00793          	li	a5,254
    3b0e:	0107dd63          	bge	a5,a6,3b28 <__truncdfsf2+0x48>
    3b12:	4781                	li	a5,0
    3b14:	00979513          	slli	a0,a5,0x9
    3b18:	0ff00693          	li	a3,255
    3b1c:	06de                	slli	a3,a3,0x17
    3b1e:	8125                	srli	a0,a0,0x9
    3b20:	05fe                	slli	a1,a1,0x1f
    3b22:	8d55                	or	a0,a0,a3
    3b24:	8d4d                	or	a0,a0,a1
    3b26:	8082                	ret
    3b28:	0b005563          	blez	a6,3bd2 <__truncdfsf2+0xf2>
    3b2c:	00651793          	slli	a5,a0,0x6
    3b30:	070e                	slli	a4,a4,0x3
    3b32:	00f037b3          	snez	a5,a5
    3b36:	8fd9                	or	a5,a5,a4
    3b38:	01d8d893          	srli	a7,a7,0x1d
    3b3c:	0117e7b3          	or	a5,a5,a7
    3b40:	0077f713          	andi	a4,a5,7
    3b44:	10070163          	beqz	a4,3c46 <__truncdfsf2+0x166>
    3b48:	00f7f713          	andi	a4,a5,15
    3b4c:	4691                	li	a3,4
    3b4e:	00d70363          	beq	a4,a3,3b54 <__truncdfsf2+0x74>
    3b52:	0791                	addi	a5,a5,4
    3b54:	04000737          	lui	a4,0x4000
    3b58:	8f7d                	and	a4,a4,a5
    3b5a:	c775                	beqz	a4,3c46 <__truncdfsf2+0x166>
    3b5c:	00180713          	addi	a4,a6,1
    3b60:	0ff00613          	li	a2,255
    3b64:	0ff77693          	andi	a3,a4,255
    3b68:	fac705e3          	beq	a4,a2,3b12 <__truncdfsf2+0x32>
    3b6c:	079a                	slli	a5,a5,0x6
    3b6e:	83a5                	srli	a5,a5,0x9
    3b70:	00979513          	slli	a0,a5,0x9
    3b74:	06de                	slli	a3,a3,0x17
    3b76:	8125                	srli	a0,a0,0x9
    3b78:	05fe                	slli	a1,a1,0x1f
    3b7a:	8d55                	or	a0,a0,a3
    3b7c:	8d4d                	or	a0,a0,a1
    3b7e:	8082                	ret
    3b80:	011767b3          	or	a5,a4,a7
    3b84:	ee99                	bnez	a3,3ba2 <__truncdfsf2+0xc2>
    3b86:	cf85                	beqz	a5,3bbe <__truncdfsf2+0xde>
    3b88:	4795                	li	a5,5
    3b8a:	079a                	slli	a5,a5,0x6
    3b8c:	83a5                	srli	a5,a5,0x9
    3b8e:	00979513          	slli	a0,a5,0x9
    3b92:	0ff6f693          	andi	a3,a3,255
    3b96:	06de                	slli	a3,a3,0x17
    3b98:	8125                	srli	a0,a0,0x9
    3b9a:	05fe                	slli	a1,a1,0x1f
    3b9c:	8d55                	or	a0,a0,a3
    3b9e:	8d4d                	or	a0,a0,a1
    3ba0:	8082                	ret
    3ba2:	dba5                	beqz	a5,3b12 <__truncdfsf2+0x32>
    3ba4:	004007b7          	lui	a5,0x400
    3ba8:	00979513          	slli	a0,a5,0x9
    3bac:	0ff00693          	li	a3,255
    3bb0:	06de                	slli	a3,a3,0x17
    3bb2:	4581                	li	a1,0
    3bb4:	8125                	srli	a0,a0,0x9
    3bb6:	05fe                	slli	a1,a1,0x1f
    3bb8:	8d55                	or	a0,a0,a3
    3bba:	8d4d                	or	a0,a0,a1
    3bbc:	8082                	ret
    3bbe:	4781                	li	a5,0
    3bc0:	00979513          	slli	a0,a5,0x9
    3bc4:	4681                	li	a3,0
    3bc6:	06de                	slli	a3,a3,0x17
    3bc8:	8125                	srli	a0,a0,0x9
    3bca:	05fe                	slli	a1,a1,0x1f
    3bcc:	8d55                	or	a0,a0,a3
    3bce:	8d4d                	or	a0,a0,a1
    3bd0:	8082                	ret
    3bd2:	57a5                	li	a5,-23
    3bd4:	04f84863          	blt	a6,a5,3c24 <__truncdfsf2+0x144>
    3bd8:	47f9                	li	a5,30
    3bda:	00800637          	lui	a2,0x800
    3bde:	410787b3          	sub	a5,a5,a6
    3be2:	457d                	li	a0,31
    3be4:	8e59                	or	a2,a2,a4
    3be6:	04f55163          	bge	a0,a5,3c28 <__truncdfsf2+0x148>
    3bea:	5779                	li	a4,-2
    3bec:	41070733          	sub	a4,a4,a6
    3bf0:	02000513          	li	a0,32
    3bf4:	00e65733          	srl	a4,a2,a4
    3bf8:	00a78863          	beq	a5,a0,3c08 <__truncdfsf2+0x128>
    3bfc:	ca268693          	addi	a3,a3,-862
    3c00:	00d616b3          	sll	a3,a2,a3
    3c04:	00d8e8b3          	or	a7,a7,a3
    3c08:	011037b3          	snez	a5,a7
    3c0c:	8fd9                	or	a5,a5,a4
    3c0e:	0077f713          	andi	a4,a5,7
    3c12:	4801                	li	a6,0
    3c14:	fb15                	bnez	a4,3b48 <__truncdfsf2+0x68>
    3c16:	00579713          	slli	a4,a5,0x5
    3c1a:	4685                	li	a3,1
    3c1c:	f40748e3          	bltz	a4,3b6c <__truncdfsf2+0x8c>
    3c20:	4681                	li	a3,0
    3c22:	b7a5                	j	3b8a <__truncdfsf2+0xaa>
    3c24:	4681                	li	a3,0
    3c26:	b78d                	j	3b88 <__truncdfsf2+0xa8>
    3c28:	c8268693          	addi	a3,a3,-894
    3c2c:	00d89733          	sll	a4,a7,a3
    3c30:	00e03733          	snez	a4,a4
    3c34:	00d616b3          	sll	a3,a2,a3
    3c38:	00f8d8b3          	srl	a7,a7,a5
    3c3c:	00d767b3          	or	a5,a4,a3
    3c40:	00f8e7b3          	or	a5,a7,a5
    3c44:	b7e9                	j	3c0e <__truncdfsf2+0x12e>
    3c46:	86c2                	mv	a3,a6
    3c48:	b789                	j	3b8a <__truncdfsf2+0xaa>

00003c4a <__clzsi2>:
    3c4a:	67c1                	lui	a5,0x10
    3c4c:	02f57c63          	bgeu	a0,a5,3c84 <__clzsi2+0x3a>
    3c50:	0ff00793          	li	a5,255
    3c54:	02000713          	li	a4,32
    3c58:	00a7eb63          	bltu	a5,a0,3c6e <__clzsi2+0x24>
    3c5c:	00001797          	auipc	a5,0x1
    3c60:	86878793          	addi	a5,a5,-1944 # 44c4 <__clz_tab>
    3c64:	97aa                	add	a5,a5,a0
    3c66:	2388                	lbu	a0,0(a5)
    3c68:	40a70533          	sub	a0,a4,a0
    3c6c:	8082                	ret
    3c6e:	8121                	srli	a0,a0,0x8
    3c70:	00001797          	auipc	a5,0x1
    3c74:	85478793          	addi	a5,a5,-1964 # 44c4 <__clz_tab>
    3c78:	97aa                	add	a5,a5,a0
    3c7a:	2388                	lbu	a0,0(a5)
    3c7c:	4761                	li	a4,24
    3c7e:	40a70533          	sub	a0,a4,a0
    3c82:	8082                	ret
    3c84:	010007b7          	lui	a5,0x1000
    3c88:	00f56d63          	bltu	a0,a5,3ca2 <__clzsi2+0x58>
    3c8c:	8161                	srli	a0,a0,0x18
    3c8e:	00001797          	auipc	a5,0x1
    3c92:	83678793          	addi	a5,a5,-1994 # 44c4 <__clz_tab>
    3c96:	97aa                	add	a5,a5,a0
    3c98:	2388                	lbu	a0,0(a5)
    3c9a:	4721                	li	a4,8
    3c9c:	40a70533          	sub	a0,a4,a0
    3ca0:	8082                	ret
    3ca2:	8141                	srli	a0,a0,0x10
    3ca4:	00001797          	auipc	a5,0x1
    3ca8:	82078793          	addi	a5,a5,-2016 # 44c4 <__clz_tab>
    3cac:	97aa                	add	a5,a5,a0
    3cae:	2388                	lbu	a0,0(a5)
    3cb0:	4741                	li	a4,16
    3cb2:	40a70533          	sub	a0,a4,a0
    3cb6:	8082                	ret

00003cb8 <memcpy>:
    3cb8:	00a5c7b3          	xor	a5,a1,a0
    3cbc:	8b8d                	andi	a5,a5,3
    3cbe:	00c50733          	add	a4,a0,a2
    3cc2:	e781                	bnez	a5,3cca <memcpy+0x12>
    3cc4:	478d                	li	a5,3
    3cc6:	00c7ed63          	bltu	a5,a2,3ce0 <memcpy+0x28>
    3cca:	87aa                	mv	a5,a0
    3ccc:	08e57e63          	bgeu	a0,a4,3d68 <memcpy+0xb0>
    3cd0:	2194                	lbu	a3,0(a1)
    3cd2:	0785                	addi	a5,a5,1
    3cd4:	0585                	addi	a1,a1,1
    3cd6:	fed78fa3          	sb	a3,-1(a5)
    3cda:	fee7ebe3          	bltu	a5,a4,3cd0 <memcpy+0x18>
    3cde:	8082                	ret
    3ce0:	00357693          	andi	a3,a0,3
    3ce4:	87aa                	mv	a5,a0
    3ce6:	ca89                	beqz	a3,3cf8 <memcpy+0x40>
    3ce8:	2194                	lbu	a3,0(a1)
    3cea:	0785                	addi	a5,a5,1
    3cec:	0585                	addi	a1,a1,1
    3cee:	fed78fa3          	sb	a3,-1(a5)
    3cf2:	0037f693          	andi	a3,a5,3
    3cf6:	bfc5                	j	3ce6 <memcpy+0x2e>
    3cf8:	ffc77693          	andi	a3,a4,-4
    3cfc:	fe068613          	addi	a2,a3,-32
    3d00:	06c7f063          	bgeu	a5,a2,3d60 <memcpy+0xa8>
    3d04:	0005a383          	lw	t2,0(a1)
    3d08:	0045a283          	lw	t0,4(a1)
    3d0c:	0085af83          	lw	t6,8(a1)
    3d10:	00c5af03          	lw	t5,12(a1)
    3d14:	0105ae83          	lw	t4,16(a1)
    3d18:	0145ae03          	lw	t3,20(a1)
    3d1c:	0185a303          	lw	t1,24(a1)
    3d20:	01c5a883          	lw	a7,28(a1)
    3d24:	02458593          	addi	a1,a1,36
    3d28:	0077a023          	sw	t2,0(a5)
    3d2c:	ffc5a803          	lw	a6,-4(a1)
    3d30:	0057a223          	sw	t0,4(a5)
    3d34:	01f7a423          	sw	t6,8(a5)
    3d38:	01e7a623          	sw	t5,12(a5)
    3d3c:	01d7a823          	sw	t4,16(a5)
    3d40:	01c7aa23          	sw	t3,20(a5)
    3d44:	0067ac23          	sw	t1,24(a5)
    3d48:	0117ae23          	sw	a7,28(a5)
    3d4c:	02478793          	addi	a5,a5,36
    3d50:	ff07ae23          	sw	a6,-4(a5)
    3d54:	b775                	j	3d00 <memcpy+0x48>
    3d56:	4190                	lw	a2,0(a1)
    3d58:	0791                	addi	a5,a5,4
    3d5a:	0591                	addi	a1,a1,4
    3d5c:	fec7ae23          	sw	a2,-4(a5)
    3d60:	fed7ebe3          	bltu	a5,a3,3d56 <memcpy+0x9e>
    3d64:	f6e7e6e3          	bltu	a5,a4,3cd0 <memcpy+0x18>
    3d68:	8082                	ret
    3d6a:	0000                	unimp
    3d6c:	0000                	unimp
    3d6e:	0000                	unimp
    3d70:	ae15                	j	40a4 <OLED_F8x16+0x290>
    3d72:	147ae147          	0x147ae147
    3d76:	3ffa                	lhu	a4,62(a5)
    3d78:	47ae147b          	0x47ae147b
    3d7c:	7ae1                	lui	s5,0xffff8
    3d7e:	3ff8                	lbu	a4,31(a5)
    3d80:	9100                	0x9100
    3d82:	fb7e                	fsw	ft11,180(sp)
    3d84:	703a                	flw	ft0,172(sp)
    3d86:	4010                	lw	a2,0(s0)
    3d88:	7ae1                	lui	s5,0xffff8
    3d8a:	ae14                	sb	a3,24(a2)
    3d8c:	3ff6e147          	fmsub.q	ft2,fa3,ft11,ft7,unknown
    3d90:	0000                	unimp
    3d92:	447a                	lw	s0,156(sp)
    3d94:	3a56                	lhu	a3,52(a2)
    3d96:	2020                	lbu	s0,2(s0)
    3d98:	2e20                	lbu	s0,26(a2)
    3d9a:	2020                	lbu	s0,2(s0)
    3d9c:	2020                	lbu	s0,2(s0)
    3d9e:	0056                	c.slli	zero,0x15
    3da0:	3a49                	jal	3732 <__subsf3+0x1a2>
    3da2:	2020                	lbu	s0,2(s0)
    3da4:	202e                	lhu	a1,2(s0)
    3da6:	2020                	lbu	s0,2(s0)
    3da8:	4120                	lw	s0,64(a0)
    3daa:	0000                	unimp
    3dac:	5750                	lw	a2,44(a4)
    3dae:	314d                	jal	3a50 <__extendsfdf2+0x1c>
    3db0:	203a                	lhu	a4,2(s0)
    3db2:	2020                	lbu	s0,2(s0)
    3db4:	2520                	lbu	s0,10(a0)
    3db6:	0000                	unimp
    3db8:	5750                	lw	a2,44(a4)
    3dba:	324d                	jal	375c <__subsf3+0x1cc>
    3dbc:	203a                	lhu	a4,2(s0)
    3dbe:	2020                	lbu	s0,2(s0)
    3dc0:	2520                	lbu	s0,10(a0)
	...
    3dca:	0000                	unimp
    3dcc:	fe00                	fsw	fs0,56(a2)
    3dce:	000040af          	0x40af
    3dd2:	6000                	flw	fs0,0(s0)
    3dd4:	6666                	flw	fa2,88(sp)
    3dd6:	400a                	0x400a
    3dd8:	d70a                	sw	sp,172(sp)
    3dda:	0a3d70a3          	0xa3d70a3
    3dde:	0a3d3ffb          	0xa3d3ffb
    3de2:	3d70a3d7          	0x3d70a3d7
    3de6:	3ffa                	lhu	a4,62(a5)
    3de8:	999a                	add	s3,s3,t1
    3dea:	9999                	andi	a1,a1,-26
    3dec:	9999                	andi	a1,a1,-26
    3dee:	3fe1                	jal	3dc6 <memcpy+0x10e>
    3df0:	0000                	unimp
    3df2:	0000                	unimp
    3df4:	0000                	unimp
    3df6:	4028                	lw	a0,64(s0)
    3df8:	999a                	add	s3,s3,t1
    3dfa:	9999                	andi	a1,a1,-26
    3dfc:	9999                	andi	a1,a1,-26
    3dfe:	3fc9                	jal	3dd0 <memcpy+0x118>
    3e00:	3d70                	lbu	a2,31(a0)
    3e02:	d70a                	sw	sp,172(sp)
    3e04:	3ff970a3          	0x3ff970a3
    3e08:	0000002b          	0x2b
    3e0c:	002d                	c.nop	11
    3e0e:	0000                	unimp
    3e10:	0020                	addi	s0,sp,8
	...

00003e14 <OLED_F8x16>:
	...
    3e24:	0000 f800 0000 0000 0000 3300 0030 0000     ...........30...
    3e34:	1000 060c 0c10 0006 0000 0000 0000 0000     ................
    3e44:	c040 4078 78c0 0040 3f04 0404 043f 0004     @.x@.x@..?..?...
    3e54:	7000 fc88 3008 0000 1800 ff20 1e21 0000     .p...0.... .!...
    3e64:	08f0 00f0 18e0 0000 2100 031c 211e 001e     .........!...!..
    3e74:	f000 8808 0070 0000 211e 2423 2719 1021     ....p....!#$.'!.
    3e84:	1610 000e 0000 0000 0000 0000 0000 0000     ................
    3e94:	0000 e000 0418 0002 0000 0700 2018 0040     ............. @.
    3ea4:	0200 1804 00e0 0000 4000 1820 0007 0000     .........@ .....
    3eb4:	4040 f080 4080 0040 0202 0f01 0201 0002     @@...@@.........
    3ec4:	0000 f000 0000 0000 0101 1f01 0101 0001     ................
	...
    3edc:	b080 0070 0000 0000 0000 0000 0000 0000     ..p.............
    3eec:	0100 0101 0101 0101 0000 0000 0000 0000     ................
    3efc:	3000 0030 0000 0000 0000 0000 6080 0418     .00..........`..
    3f0c:	6000 0618 0001 0000 e000 0810 1008 00e0     .`..............
    3f1c:	0f00 2010 1020 000f 1000 f810 0000 0000     ...  ...........
    3f2c:	2000 3f20 2020 0000 7000 0808 8808 0070     .  ?  ...p....p.
    3f3c:	3000 2428 2122 0030 3000 8808 4888 0030     .0($"!0..0...H0.
    3f4c:	1800 2020 1120 000e 0000 20c0 f810 0000     ..   ...... ....
    3f5c:	0700 2404 3f24 0024 f800 8808 0888 0008     ...$$?$.........
    3f6c:	1900 2021 1120 000e e000 8810 1888 0000     ..!  ...........
    3f7c:	0f00 2011 1120 000e 3800 0808 38c8 0008     ...  ....8...8..
    3f8c:	0000 3f00 0000 0000 7000 0888 8808 0070     ...?.....p....p.
    3f9c:	1c00 2122 2221 001c e000 0810 1008 00e0     .."!!"..........
    3fac:	0000 2231 1122 000f 0000 c000 00c0 0000     ..1""...........
    3fbc:	0000 3000 0030 0000 0000 8000 0000 0000     ...00...........
    3fcc:	0000 6080 0000 0000 0000 4080 1020 0008     ...`.......@ ...
    3fdc:	0100 0402 1008 0020 4040 4040 4040 0040     ...... .@@@@@@@.
    3fec:	0404 0404 0404 0004 0800 2010 8040 0000     ........... @...
    3ffc:	2000 0810 0204 0001 7000 0848 0808 00f0     . .......pH.....
    400c:	0000 3000 0136 0000 30c0 28c8 10e8 00e0     ...06....0.(....
    401c:	1807 2427 1423 000b 0000 38c0 00e0 0000     ..'$#......8....
    402c:	3c20 0223 2702 2038 f808 8888 7088 0000      <#..'8 .....p..
    403c:	3f20 2020 1120 000e 30c0 0808 0808 0038      ?   ....0....8.
    404c:	1807 2020 1020 0008 f808 0808 1008 00e0     ..   ...........
    405c:	3f20 2020 1020 000f f808 8888 08e8 0010      ?   ...........
    406c:	3f20 2020 2023 0018 f808 8888 08e8 0010      ?  # ..........
    407c:	3f20 0020 0003 0000 30c0 0808 3808 0000      ? ......0...8..
    408c:	1807 2020 1e22 0002 f808 0008 0800 08f8     ..  "...........
    409c:	3f20 0121 2101 203f 0800 f808 0808 0000      ?!..!? ........
    40ac:	2000 3f20 2020 0000 0000 0808 08f8 0008     .  ?  ..........
    40bc:	80c0 8080 007f 0000 f808 c088 1828 0008     ............(...
    40cc:	3f20 0120 3826 0020 f808 0008 0000 0000      ? .&8 .........
    40dc:	3f20 2020 2020 0030 f808 00f8 f8f8 0008      ?    0.........
    40ec:	3f20 3f00 3f00 0020 f808 c030 0800 08f8      ?.?.? ...0.....
    40fc:	3f20 0020 1807 003f 10e0 0808 1008 00e0      ? ...?.........
    410c:	100f 2020 1020 000f f808 0808 0808 00f0     ..   ...........
    411c:	3f20 0121 0101 0000 10e0 0808 1008 00e0      ?!.............
    412c:	180f 2424 5038 004f f808 8888 8888 0070     ..$$8PO.......p.
    413c:	3f20 0020 0c03 2030 7000 0888 0808 0038      ? ...0 .p....8.
    414c:	3800 2120 2221 001c 0818 f808 0808 0018     .8 !!"..........
    415c:	0000 3f20 0020 0000 f808 0008 0800 08f8     .. ? ...........
    416c:	1f00 2020 2020 001f 7808 0088 c800 0838     ..    ...x....8.
    417c:	0000 3807 010e 0000 08f8 f800 0800 00f8     ...8............
    418c:	3c03 0007 3c07 0003 1808 8068 6880 0818     .<...<....h..h..
    419c:	3020 032c 2c03 2030 3808 00c8 38c8 0008      0,..,0 .8...8..
    41ac:	0000 3f20 0020 0000 0810 0808 38c8 0008     .. ? ........8..
    41bc:	3820 2126 2020 0018 0000 fe00 0202 0002      8&!  ..........
    41cc:	0000 7f00 4040 0040 0c00 c030 0000 0000     ....@@@...0.....
    41dc:	0000 0100 3806 00c0 0200 0202 00fe 0000     .....8..........
    41ec:	4000 4040 007f 0000 0000 0204 0202 0004     .@@@............
	...
    420c:	8080 8080 8080 8080 0200 0402 0000 0000     ................
	...
    4224:	0000 8080 8080 0000 1900 2224 2222 203f     ..........$"""? 
    4234:	f808 8000 0080 0000 3f00 2011 1120 000e     .........?.  ...
    4244:	0000 8000 8080 0000 0e00 2011 2020 0011     ...........   ..
    4254:	0000 8000 8880 00f8 0e00 2011 1020 203f     ...........  .? 
    4264:	0000 8080 8080 0000 1f00 2222 2222 0013     ..........""""..
    4274:	8000 f080 8888 1888 2000 3f20 2020 0000     .........  ?  ..
    4284:	0000 8080 8080 0080 6b00 9494 9394 0060     .........k....`.
    4294:	f808 8000 8080 0000 3f20 0021 2000 203f     ........ ?!.. ? 
    42a4:	8000 9898 0000 0000 2000 3f20 2020 0000     .........  ?  ..
    42b4:	0000 8000 9898 0000 c000 8080 7f80 0000     ................
    42c4:	f808 0000 8080 0080 3f20 0224 302d 0020     ........ ?$.-0 .
    42d4:	0800 f808 0000 0000 2000 3f20 2020 0000     .........  ?  ..
    42e4:	8080 8080 8080 0080 3f20 0020 203f 3f00     ........ ? .? .?
    42f4:	8080 8000 8080 0000 3f20 0021 2000 203f     ........ ?!.. ? 
    4304:	0000 8080 8080 0000 1f00 2020 2020 001f     ..........    ..
    4314:	8080 8000 0080 0000 ff80 20a1 1120 000e     ...........  ...
    4324:	0000 8000 8080 0080 0e00 2011 a020 80ff     ...........  ...
    4334:	8080 0080 8080 0080 2020 213f 0020 0001     ........  ?! ...
    4344:	0000 8080 8080 0080 3300 2424 2424 0019     .........3$$$$..
    4354:	8000 e080 8080 0000 0000 1f00 2020 0000     ............  ..
    4364:	8080 0000 8000 0080 1f00 2020 1020 203f     ..........   .? 
    4374:	8080 0080 8000 8080 0100 300e 0608 0001     ...........0....
    4384:	8080 8000 8000 8080 300f 030c 300c 000f     .........0...0..
    4394:	8000 0080 8080 0080 2000 2e31 310e 0020     ......... 1..1 .
    43a4:	8080 0080 8000 8080 8180 708e 0618 0001     ...........p....
    43b4:	8000 8080 8080 0080 2100 2c30 2122 0030     .........!0,"!0.
    43c4:	0000 0000 7c80 0202 0000 0000 3f00 4040     .....|.......?@@
    43d4:	0000 0000 00ff 0000 0000 0000 00ff 0000     ................
    43e4:	0200 7c02 0080 0000 4000 3f40 0000 0000     ...|.....@@?....
    43f4:	0600 0101 0202 0404 0000 0000 0000 0000     ................
    4404:	ddba ffff dc3e ffff dd4e ffff dd56 ffff     ....>...N...V...
    4414:	dd4e ffff dc6e ffff dd4e ffff dd56 ffff     N...n...N...V...
    4424:	dc3e ffff dc3e ffff dc6e ffff dd56 ffff     >...>...n...V...
    4434:	ddb0 ffff ddb0 ffff ddb0 ffff dc6e ffff     ............n...
    4444:	e460 ffff e352 ffff e352 ffff e350 ffff     `...R...R...P...
    4454:	e358 ffff e358 ffff e31e ffff e350 ffff     X...X.......P...
    4464:	e358 ffff e31e ffff e358 ffff e350 ffff     X.......X...P...
    4474:	e44c ffff e44c ffff e44c ffff e31e ffff     L...L...L.......
    4484:	effc ffff ef4a ffff ef4a ffff ef48 ffff     ....J...J...H...
    4494:	ef4e ffff ef4e ffff ef1e ffff ef48 ffff     N...N.......H...
    44a4:	ef4e ffff ef1e ffff ef4e ffff ef48 ffff     N.......N...H...
    44b4:	efea ffff efea ffff efea ffff ef1e ffff     ................

000044c4 <__clz_tab>:
    44c4:	0100 0202 0303 0303 0404 0404 0404 0404     ................
    44d4:	0505 0505 0505 0505 0505 0505 0505 0505     ................
    44e4:	0606 0606 0606 0606 0606 0606 0606 0606     ................
    44f4:	0606 0606 0606 0606 0606 0606 0606 0606     ................
    4504:	0707 0707 0707 0707 0707 0707 0707 0707     ................
    4514:	0707 0707 0707 0707 0707 0707 0707 0707     ................
    4524:	0707 0707 0707 0707 0707 0707 0707 0707     ................
    4534:	0707 0707 0707 0707 0707 0707 0707 0707     ................
    4544:	0808 0808 0808 0808 0808 0808 0808 0808     ................
    4554:	0808 0808 0808 0808 0808 0808 0808 0808     ................
    4564:	0808 0808 0808 0808 0808 0808 0808 0808     ................
    4574:	0808 0808 0808 0808 0808 0808 0808 0808     ................
    4584:	0808 0808 0808 0808 0808 0808 0808 0808     ................
    4594:	0808 0808 0808 0808 0808 0808 0808 0808     ................
    45a4:	0808 0808 0808 0808 0808 0808 0808 0808     ................
    45b4:	0808 0808 0808 0808 0808 0808 0808 0808     ................
